{
   <insert_a_suppression_name_here>
   Memcheck:Leak
   fun:_Znwj
   fun:_ZN3gui4view8users_qt15_create_actionsEv
   fun:_ZN3gui4view8users_qtC1EP7QWidgetRKSs
   fun:_ZN3gui6window8house_qt15_create_widgetsEv
   fun:_ZN3gui6window8house_qtC1Ev
   fun:_ZN3gui12house_app_qt5startEv
   fun:_ZN17app_functionality8house_qt3runEv
   fun:_Z7do_mainRiPPc
   fun:main
}
{
   <insert_a_suppression_name_here>
   Memcheck:Leak
   fun:_Znwj
   fun:_ZN3gui4view8users_qt15_create_actionsEv
   fun:_ZN3gui4view8users_qtC1EP7QWidgetRKSs
   fun:_ZN3gui6window8house_qt15_create_widgetsEv
   fun:_ZN3gui6window8house_qtC1Ev
   fun:_ZN3gui12house_app_qt5startEv
   fun:_ZN17app_functionality8house_qt3runEv
   fun:_Z7do_mainRiPPc
   fun:main
}
{
   <insert_a_suppression_name_here>
   Memcheck:Leak
   fun:_Znwj
   fun:_ZN3gui4view8users_qt15_create_actionsEv
   fun:_ZN3gui4view8users_qtC1EP7QWidgetRKSs
   fun:_ZN3gui6window8house_qt15_create_widgetsEv
   fun:_ZN3gui6window8house_qtC1Ev
   fun:_ZN3gui12house_app_qt5startEv
   fun:_ZN17app_functionality8house_qt3runEv
   fun:_Z7do_mainRiPPc
   fun:main
}
{
   <insert_a_suppression_name_here>
   Memcheck:Leak
   fun:_Znwj
   fun:_ZN3gui4view8users_qt15_create_actionsEv
   fun:_ZN3gui4view8users_qtC1EP7QWidgetRKSs
   fun:_ZN3gui6window8house_qt15_create_widgetsEv
   fun:_ZN3gui6window8house_qtC1Ev
   fun:_ZN3gui12house_app_qt5startEv
   fun:_ZN17app_functionality8house_qt3runEv
   fun:_Z7do_mainRiPPc
   fun:main
}
{
   <insert_a_suppression_name_here>
   Memcheck:Leak
   fun:_Znwj
   fun:_ZN3gui4view8users_qt15_create_actionsEv
   fun:_ZN3gui4view8users_qtC1EP7QWidgetRKSs
   fun:_ZN3gui6window8house_qt15_create_widgetsEv
   fun:_ZN3gui6window8house_qtC1Ev
   fun:_ZN3gui12house_app_qt5startEv
   fun:_ZN17app_functionality8house_qt3runEv
   fun:_Z7do_mainRiPPc
   fun:main
}
{
   <insert_a_suppression_name_here>
   Memcheck:Leak
   fun:_Znwj
   fun:_ZN3gui4view8users_qt15_create_actionsEv
   fun:_ZN3gui4view8users_qtC1EP7QWidgetRKSs
   fun:_ZN3gui6window8house_qt15_create_widgetsEv
   fun:_ZN3gui6window8house_qtC1Ev
   fun:_ZN3gui12house_app_qt5startEv
   fun:_ZN17app_functionality8house_qt3runEv
   fun:_Z7do_mainRiPPc
   fun:main
}
{
   <insert_a_suppression_name_here>
   Memcheck:Leak
   fun:_Znwj
   fun:_ZN12QMenuPrivate4initEv
   fun:_ZN5QMenuC1EP7QWidget
   fun:_ZN3gui4view8users_qt20_create_context_menuEv
   fun:_ZN3gui4view8users_qtC1EP7QWidgetRKSs
   fun:_ZN3gui6window8house_qt15_create_widgetsEv
   fun:_ZN3gui6window8house_qtC1Ev
   fun:_ZN3gui12house_app_qt5startEv
   fun:_ZN17app_functionality8house_qt3runEv
   fun:_Z7do_mainRiPPc
   fun:main
}
{
   <insert_a_suppression_name_here>
   Memcheck:Leak
   fun:_Znwj
   fun:_ZN12QMenuPrivate4initEv
   fun:_ZN5QMenuC1ERK7QStringP7QWidget
   fun:_ZN3gui4view8users_qt20_create_context_menuEv
   fun:_ZN3gui4view8users_qtC1EP7QWidgetRKSs
   fun:_ZN3gui6window8house_qt15_create_widgetsEv
   fun:_ZN3gui6window8house_qtC1Ev
   fun:_ZN3gui12house_app_qt5startEv
   fun:_ZN17app_functionality8house_qt3runEv
   fun:_Z7do_mainRiPPc
   fun:main
}
{
   <insert_a_suppression_name_here>
   Memcheck:Leak
   fun:_Znwj
   fun:_ZN3gui4view8users_qt20_create_context_menuEv
   fun:_ZN3gui4view8users_qtC1EP7QWidgetRKSs
   fun:_ZN3gui6window8house_qt15_create_widgetsEv
   fun:_ZN3gui6window8house_qtC1Ev
   fun:_ZN3gui12house_app_qt5startEv
   fun:_ZN17app_functionality8house_qt3runEv
   fun:_Z7do_mainRiPPc
   fun:main
}
{
   <insert_a_suppression_name_here>
   Memcheck:Leak
   fun:malloc
   fun:_ZNK7QRegion14clipRectanglesERi
   fun:_Z15qt_getClipRectsRK7QRegionRi
   fun:_ZN15QX11PaintEngine9updatePenERK4QPen
   fun:_ZN15QX11PaintEngine11updateStateERK17QPaintEngineState
   fun:_ZN15QPainterPrivate15updateStateImplEP13QPainterState
   fun:_ZN15QPainterPrivate11updateStateEP13QPainterState
   fun:_ZN8QPainter4saveEv
   fun:_ZNK16QCleanlooksStyle13drawPrimitiveEN6QStyle16PrimitiveElementEPK12QStyleOptionP8QPainterPK7QWidget
   fun:_ZNK12QCommonStyle18drawComplexControlEN6QStyle14ComplexControlEPK19QStyleOptionComplexP8QPainterPK7QWidget
   fun:_ZNK13QWindowsStyle18drawComplexControlEN6QStyle14ComplexControlEPK19QStyleOptionComplexP8QPainterPK7QWidget
   fun:_ZNK16QCleanlooksStyle18drawComplexControlEN6QStyle14ComplexControlEPK19QStyleOptionComplexP8QPainterPK7QWidget
}
{
   <insert_a_suppression_name_here>
   Memcheck:Leak
   fun:malloc
   fun:_Z7qMallocj
   fun:_ZN9QHashData12allocateNodeEi
   fun:_ZN21QTextFormatCollection14indexForFormatERK11QTextFormat
   fun:_ZN21QTextFormatCollection17createObjectIndexERK11QTextFormat
   fun:_ZN20QTextDocumentPrivate12createObjectERK11QTextFormati
   fun:_ZNK20QTextDocumentPrivate9rootFrameEv
   fun:_ZN19QTextDocumentLayout8doLayoutEiii
   fun:_ZNK26QTextDocumentLayoutPrivate24ensureLayoutedByPositionEi
   fun:_ZNK26QTextDocumentLayoutPrivate10layoutStepEv
   fun:_ZN19QTextDocumentLayout15documentChangedEiii
   fun:_ZN20QTextDocumentPrivate9setLayoutEP27QAbstractTextDocumentLayout
}
{
   <insert_a_suppression_name_here>
   Memcheck:Leak
   fun:_Znwj
   fun:_ZN10QBoxLayout13insertSpacingEii
   fun:_ZN10QBoxLayout10addSpacingEi
   fun:_ZN10QStatusBar8reformatEv
   fun:_ZN10QStatusBar18setSizeGripEnabledEb
   fun:_ZN10QStatusBarC1EP7QWidget
   fun:_ZNK11QMainWindow9statusBarEv
   fun:_ZN3gui6window8house_qt14_update_statusEv
   fun:_ZN3gui6window8house_qtC1Ev
   fun:_ZN3gui12house_app_qt5startEv
   fun:_ZN17app_functionality8house_qt3runEv
   fun:_Z7do_mainRiPPc
}
{
   <insert_a_suppression_name_here>
   Memcheck:Leak
   fun:_Znwj
   fun:_ZN10QBoxLayout12insertLayoutEiP7QLayouti
   fun:_ZN10QBoxLayout9addLayoutEP7QLayouti
   fun:_ZN10QStatusBar8reformatEv
   fun:_ZN10QStatusBar18setSizeGripEnabledEb
   fun:_ZN10QStatusBarC1EP7QWidget
   fun:_ZNK11QMainWindow9statusBarEv
   fun:_ZN3gui6window8house_qt14_update_statusEv
   fun:_ZN3gui6window8house_qtC1Ev
   fun:_ZN3gui12house_app_qt5startEv
   fun:_ZN17app_functionality8house_qt3runEv
   fun:_Z7do_mainRiPPc
}
{
   <insert_a_suppression_name_here>
   Memcheck:Leak
   fun:_Znwj
   fun:_ZN10QBoxLayout13insertSpacingEii
   fun:_ZN10QBoxLayout10addSpacingEi
   fun:_ZN10QStatusBar8reformatEv
   fun:_ZN10QStatusBar18setSizeGripEnabledEb
   fun:_ZN10QStatusBarC1EP7QWidget
   fun:_ZNK11QMainWindow9statusBarEv
   fun:_ZN3gui6window8house_qt14_update_statusEv
   fun:_ZN3gui6window8house_qtC1Ev
   fun:_ZN3gui12house_app_qt5startEv
   fun:_ZN17app_functionality8house_qt3runEv
   fun:_Z7do_mainRiPPc
}
{
   <insert_a_suppression_name_here>
   Memcheck:Leak
   fun:_Znwj
   fun:_ZN10QBoxLayout13insertStretchEii
   fun:_ZN10QBoxLayout10addStretchEi
   fun:_ZN10QStatusBar8reformatEv
   fun:_ZN10QStatusBar18setSizeGripEnabledEb
   fun:_ZN10QStatusBarC1EP7QWidget
   fun:_ZNK11QMainWindow9statusBarEv
   fun:_ZN3gui6window8house_qt14_update_statusEv
   fun:_ZN3gui6window8house_qtC1Ev
   fun:_ZN3gui12house_app_qt5startEv
   fun:_ZN17app_functionality8house_qt3runEv
   fun:_Z7do_mainRiPPc
}
{
   <insert_a_suppression_name_here>
   Memcheck:Leak
   fun:_Znwj
   fun:_ZN10QBoxLayout8addStrutEi
   fun:_ZN10QStatusBar8reformatEv
   fun:_ZN10QStatusBar18setSizeGripEnabledEb
   fun:_ZN10QStatusBarC1EP7QWidget
   fun:_ZNK11QMainWindow9statusBarEv
   fun:_ZN3gui6window8house_qt14_update_statusEv
   fun:_ZN3gui6window8house_qtC1Ev
   fun:_ZN3gui12house_app_qt5startEv
   fun:_ZN17app_functionality8house_qt3runEv
   fun:_Z7do_mainRiPPc
   fun:main
}
{
   <insert_a_suppression_name_here>
   Memcheck:Leak
   fun:_Znwj
   fun:_ZN10QBoxLayout13insertSpacingEii
   fun:_ZN10QBoxLayout10addSpacingEi
   fun:_ZN10QStatusBar8reformatEv
   fun:_ZN10QStatusBar18setSizeGripEnabledEb
   fun:_ZN10QStatusBarC1EP7QWidget
   fun:_ZNK11QMainWindow9statusBarEv
   fun:_ZN3gui6window8house_qt14_update_statusEv
   fun:_ZN3gui6window8house_qtC1Ev
   fun:_ZN3gui12house_app_qt5startEv
   fun:_ZN17app_functionality8house_qt3runEv
   fun:_Z7do_mainRiPPc
}
{
   <insert_a_suppression_name_here>
   Memcheck:Leak
   fun:_Znwj
   fun:_ZN5QListI8QVariantE6appendERKS0_
   fun:_ZN15QTreeWidgetItem7setDataEiiRK8QVariant
   fun:_ZN15QTreeWidgetItem7setTextEiRK7QString
   fun:_ZN3gui4view8users_qt15_add_group_itemERNS1_12_parent_itemEi
   fun:_ZN3gui4view8users_qt32_reserve_place_for_item_in_groupEi
   fun:_ZN3gui4view8users_qt14_add_user_itemEPNS0_12user_item_qtEi
   fun:_ZN3gui4view8users_qt9_new_userERKN11chat_gaming4userEi
   fun:_ZN3gui4view8users_qt12_update_userERKN11chat_gaming4userEi
   fun:_ZN3gui4view8users_qt12_update_userERKN11chat_gaming8user_keyEi
   fun:_ZN3gui4view8users_qt14handle_messageEP7message
   fun:_ZN3gui6window8house_qt14handle_messageEP7message
}
{
   <insert_a_suppression_name_here>
   Memcheck:Leak
   fun:malloc
   fun:_Z7qMallocj
   fun:_ZN9QHashData12allocateNodeEi
   fun:_ZN9QTreeView6expandERK11QModelIndex
   fun:_ZN9QTreeView11setExpandedERK11QModelIndexb
   fun:_ZN11QTreeWidget15setItemExpandedEPK15QTreeWidgetItemb
   fun:_ZN15QTreeWidgetItem11setExpandedEb
   fun:_ZN3gui4view8users_qt15_add_group_itemERNS1_12_parent_itemEi
   fun:_ZN3gui4view8users_qt32_reserve_place_for_item_in_groupEi
   fun:_ZN3gui4view8users_qt14_add_user_itemEPNS0_12user_item_qtEi
   fun:_ZN3gui4view8users_qt9_new_userERKN11chat_gaming4userEi
   fun:_ZN3gui4view8users_qt12_update_userERKN11chat_gaming4userEi
}
{
   <insert_a_suppression_name_here>
   Memcheck:Leak
   fun:malloc
   fun:_Z7qMallocj
   fun:_ZN9QHashData12allocateNodeEi
   fun:_ZN27QAbstractTextDocumentLayout15registerHandlerEiP7QObject
   fun:_ZN19QTextDocumentLayoutC1EP13QTextDocument
   fun:_ZNK13QTextDocument14documentLayoutEv
   fun:_ZN19QTextControlPrivate24_q_documentLayoutChangedEv
   fun:_ZN19QTextControlPrivate10setContentEN2Qt10TextFormatERK7QStringP13QTextDocument
   fun:_ZN19QTextControlPrivate4initEN2Qt10TextFormatERK7QStringP13QTextDocument
   fun:_ZN12QTextControlC2EP7QObject
   fun:_ZN16QTextEditPrivate4initERK7QString
   fun:_ZN9QTextEditC2ER16QTextEditPrivateP7QWidget
}
{
   <insert_a_suppression_name_here>
   Memcheck:Leak
   fun:malloc
   fun:_Z7qMallocj
   fun:_ZN8QMapData11node_createEPPNS_4NodeEii
   fun:_ZN20QTextDocumentPrivate12createObjectERK11QTextFormati
   fun:_ZNK20QTextDocumentPrivate9rootFrameEv
   fun:_ZN19QTextDocumentLayout8doLayoutEiii
   fun:_ZNK26QTextDocumentLayoutPrivate24ensureLayoutedByPositionEi
   fun:_ZNK26QTextDocumentLayoutPrivate10layoutStepEv
   fun:_ZN19QTextDocumentLayout15documentChangedEiii
   fun:_ZN20QTextDocumentPrivate10finishEditEv
   fun:_ZN20QTextDocumentPrivate12endEditBlockEv
   fun:_ZN20QTextDocumentPrivate11insertBlockERK5QChariiiN16QTextUndoCommand9OperationE
}
{
   <insert_a_suppression_name_here>
   Memcheck:Leak
   fun:_Znwj
   fun:_ZN10QStatusBar8reformatEv
   fun:_ZN10QStatusBar18setSizeGripEnabledEb
   fun:_ZN10QStatusBarC1EP7QWidget
   fun:_ZNK11QMainWindow9statusBarEv
   fun:_ZN3gui6window8house_qt14_update_statusEv
   fun:_ZN3gui6window8house_qtC1Ev
   fun:_ZN3gui12house_app_qt5startEv
   fun:_ZN17app_functionality8house_qt3runEv
   fun:_Z7do_mainRiPPc
   fun:main
}
{
   <insert_a_suppression_name_here>
   Memcheck:Leak
   fun:_Znwj
   fun:_ZN14QWidgetPrivate30createDefaultWindowSurface_sysEv
   fun:_ZN14QWidgetPrivate26createDefaultWindowSurfaceEv
   fun:_ZN19QWidgetBackingStoreC1EP7QWidget
   fun:_ZN26QWidgetBackingStoreTracker6createEP7QWidget
   fun:_ZN7QWidget6createEmbb
   fun:_ZN7QWidget10setVisibleEb
   fun:_ZN7QWidget4showEv
   fun:_ZN3gui6window21size_restoring_windowI11QMainWindowE4showEv
   fun:_ZN3gui12house_app_qt5startEv
   fun:_ZN17app_functionality8house_qt3runEv
   fun:_Z7do_mainRiPPc
}
{
   <insert_a_suppression_name_here>
   Memcheck:Leak
   fun:_Znwj
   fun:_ZNK7QRegion4copyEv
   fun:_ZN7QRegion6detachEv
   fun:_ZN7QRegion9translateEii
   fun:_ZNK14QWidgetPrivate17getOpaqueChildrenEv
   fun:_ZNK14QWidgetPrivate17getOpaqueChildrenEv
   fun:_ZNK14QWidgetPrivate17getOpaqueChildrenEv
   fun:_ZNK14QWidgetPrivate17getOpaqueChildrenEv
   fun:_ZNK14QWidgetPrivate22subtractOpaqueChildrenER7QRegionRK5QRect
   fun:_ZN14QWidgetPrivate10drawWidgetEP12QPaintDeviceRK7QRegionRK6QPointiP8QPainterP19QWidgetBackingStore
   fun:_ZN19QWidgetBackingStore4syncEv
   fun:_ZN19QWidgetBackingStore4syncEP7QWidgetRK7QRegion
}
{
   <insert_a_suppression_name_here>
   Memcheck:Leak
   fun:_Znwj
   fun:_ZNK7QRegion4copyEv
   fun:_ZN7QRegion6detachEv
   fun:_ZN7QRegion9translateEii
   fun:_ZNK7QRegion10translatedEii
   fun:_ZN14QWidgetPrivate10drawWidgetEP12QPaintDeviceRK7QRegionRK6QPointiP8QPainterP19QWidgetBackingStore
   fun:_ZN14QWidgetPrivate22paintSiblingsRecursiveEP12QPaintDeviceRK5QListIP7QObjectEiRK7QRegionRK6QPointiP8QPainterP19QWidgetBackingStore
   fun:_ZN14QWidgetPrivate10drawWidgetEP12QPaintDeviceRK7QRegionRK6QPointiP8QPainterP19QWidgetBackingStore
   fun:_ZN14QWidgetPrivate22paintSiblingsRecursiveEP12QPaintDeviceRK5QListIP7QObjectEiRK7QRegionRK6QPointiP8QPainterP19QWidgetBackingStore
   fun:_ZN14QWidgetPrivate10drawWidgetEP12QPaintDeviceRK7QRegionRK6QPointiP8QPainterP19QWidgetBackingStore
   fun:_ZN19QWidgetBackingStore4syncEv
   fun:_ZN14QWidgetPrivate16syncBackingStoreEv
}
{
   <insert_a_suppression_name_here>
   Memcheck:Leak
   fun:_Znwj
   fun:_ZN7QRegionC1ERK5QRectNS_10RegionTypeE
   fun:_ZNK14QWidgetPrivate17getOpaqueChildrenEv
   fun:_ZNK14QWidgetPrivate17getOpaqueChildrenEv
   fun:_ZNK14QWidgetPrivate17getOpaqueChildrenEv
   fun:_ZNK14QWidgetPrivate17getOpaqueChildrenEv
   fun:_ZNK14QWidgetPrivate22subtractOpaqueChildrenER7QRegionRK5QRect
   fun:_ZN14QWidgetPrivate10drawWidgetEP12QPaintDeviceRK7QRegionRK6QPointiP8QPainterP19QWidgetBackingStore
   fun:_ZN19QWidgetBackingStore4syncEv
   fun:_ZN14QWidgetPrivate16syncBackingStoreEv
   fun:_ZN7QWidget5eventEP6QEvent
   fun:_ZN11QMainWindow5eventEP6QEvent
}
{
   <insert_a_suppression_name_here>
   Memcheck:Leak
   fun:_Znwj
   fun:_ZNK7QRegion4copyEv
   fun:_ZN7QRegion6detachEv
   fun:_ZN7QRegion9translateEii
   fun:_ZNK14QWidgetPrivate17getOpaqueChildrenEv
   fun:_ZNK14QWidgetPrivate22subtractOpaqueChildrenER7QRegionRK5QRect
   fun:_ZN14QWidgetPrivate10drawWidgetEP12QPaintDeviceRK7QRegionRK6QPointiP8QPainterP19QWidgetBackingStore
   fun:_ZN19QWidgetBackingStore4syncEv
   fun:_ZN14QWidgetPrivate16syncBackingStoreEv
   fun:_ZN7QWidget5eventEP6QEvent
   fun:_ZN11QMainWindow5eventEP6QEvent
   fun:_ZN19QApplicationPrivate13notify_helperEP7QObjectP6QEvent
}
{
   <insert_a_suppression_name_here>
   Memcheck:Leak
   fun:_Znwj
   fun:_ZN5QIcon9addPixmapERK7QPixmapNS_4ModeENS_5StateE
   fun:_ZNK12QCommonStyle26standardIconImplementationEN6QStyle14StandardPixmapEPK12QStyleOptionPK7QWidget
   fun:_ZNK13QWindowsStyle26standardIconImplementationEN6QStyle14StandardPixmapEPK12QStyleOptionPK7QWidget
   fun:_ZNK16QCleanlooksStyle26standardIconImplementationEN6QStyle14StandardPixmapEPK12QStyleOptionPK7QWidget
   fun:_ZN16QCleanlooksStyle11qt_metacallEN11QMetaObject4CallEiPPv
   fun:_ZN11QMetaObject8metacallEP7QObjectNS_4CallEiPPv
   fun:_ZNK11QMetaMethod6invokeEP7QObjectN2Qt14ConnectionTypeE22QGenericReturnArgument16QGenericArgumentS5_S5_S5_S5_S5_S5_S5_S5_S5_
   fun:_ZN11QMetaObject12invokeMethodEP7QObjectPKcN2Qt14ConnectionTypeE22QGenericReturnArgument16QGenericArgumentS7_S7_S7_S7_S7_S7_S7_S7_S7_
   fun:_ZNK6QStyle12standardIconENS_14StandardPixmapEPK12QStyleOptionPK7QWidget
   fun:_ZN17QToolBarExtension14setOrientationEN2Qt11OrientationE
   fun:_ZN17QToolBarExtensionC1EP7QWidget
}
{
   <insert_a_suppression_name_here>
   Memcheck:Leak
   fun:_Znwj
   fun:_ZN12QKeySequenceC1Eiiii
   fun:_ZN3gui6window8house_qt15_create_actionsEv
   fun:_ZN3gui6window8house_qtC1Ev
   fun:_ZN3gui12house_app_qt5startEv
   fun:_ZN17app_functionality8house_qt3runEv
   fun:_Z7do_mainRiPPc
   fun:main
}
{
   <insert_a_suppression_name_here>
   Memcheck:Leak
   fun:_Znwj
   fun:_ZN12QKeySequenceC1Eiiii
   fun:_ZN3gui6window8house_qt15_create_actionsEv
   fun:_ZN3gui6window8house_qtC1Ev
   fun:_ZN3gui12house_app_qt5startEv
   fun:_ZN17app_functionality8house_qt3runEv
   fun:_Z7do_mainRiPPc
   fun:main
}
{
   <insert_a_suppression_name_here>
   Memcheck:Leak
   fun:_Znwj
   fun:_ZN12QKeySequenceC1Eiiii
   fun:_ZN3gui6window8house_qt15_create_actionsEv
   fun:_ZN3gui6window8house_qtC1Ev
   fun:_ZN3gui12house_app_qt5startEv
   fun:_ZN17app_functionality8house_qt3runEv
   fun:_Z7do_mainRiPPc
   fun:main
}
{
   <insert_a_suppression_name_here>
   Memcheck:Leak
   fun:_Znwj
   fun:_ZN12QKeySequenceC1Eiiii
   fun:_ZN3gui6window8house_qt15_create_actionsEv
   fun:_ZN3gui6window8house_qtC1Ev
   fun:_ZN3gui12house_app_qt5startEv
   fun:_ZN17app_functionality8house_qt3runEv
   fun:_Z7do_mainRiPPc
   fun:main
}
{
   <insert_a_suppression_name_here>
   Memcheck:Leak
   fun:_Znwj
   fun:_ZN12QKeySequenceC1Eiiii
   fun:_ZN3gui6window8house_qt15_create_actionsEv
   fun:_ZN3gui6window8house_qtC1Ev
   fun:_ZN3gui12house_app_qt5startEv
   fun:_ZN17app_functionality8house_qt3runEv
   fun:_Z7do_mainRiPPc
   fun:main
}
{
   <insert_a_suppression_name_here>
   Memcheck:Leak
   fun:_Znwj
   fun:_ZN14QObjectPrivate13addConnectionEiPNS_10ConnectionE
   fun:_ZN18QMetaObjectPrivate7connectEPK7QObjectiS2_iiPi
   fun:_ZN7QObject7connectEPKS_PKcS1_S3_N2Qt14ConnectionTypeE
   fun:_ZN12QActionGroup9addActionEP7QAction
   fun:_ZN3gui6window8house_qt15_create_actionsEv
   fun:_ZN3gui6window8house_qtC1Ev
   fun:_ZN3gui12house_app_qt5startEv
   fun:_ZN17app_functionality8house_qt3runEv
   fun:_Z7do_mainRiPPc
   fun:main
}
{
   <insert_a_suppression_name_here>
   Memcheck:Leak
   fun:_Znwj
   fun:_ZN14QObjectPrivate13addConnectionEiPNS_10ConnectionE
   fun:_ZN18QMetaObjectPrivate7connectEPK7QObjectiS2_iiPi
   fun:_ZN7QObject7connectEPKS_PKcS1_S3_N2Qt14ConnectionTypeE
   fun:_ZN12QActionGroup9addActionEP7QAction
   fun:_ZN3gui6window8house_qt15_create_actionsEv
   fun:_ZN3gui6window8house_qtC1Ev
   fun:_ZN3gui12house_app_qt5startEv
   fun:_ZN17app_functionality8house_qt3runEv
   fun:_Z7do_mainRiPPc
   fun:main
}
{
   <insert_a_suppression_name_here>
   Memcheck:Leak
   fun:_Znwj
   fun:_ZN14QObjectPrivate13addConnectionEiPNS_10ConnectionE
   fun:_ZN18QMetaObjectPrivate7connectEPK7QObjectiS2_iiPi
   fun:_ZN7QObject7connectEPKS_PKcS1_S3_N2Qt14ConnectionTypeE
   fun:_ZN12QActionGroup9addActionEP7QAction
   fun:_ZN3gui6window8house_qt15_create_actionsEv
   fun:_ZN3gui6window8house_qtC1Ev
   fun:_ZN3gui12house_app_qt5startEv
   fun:_ZN17app_functionality8house_qt3runEv
   fun:_Z7do_mainRiPPc
   fun:main
}
{
   <insert_a_suppression_name_here>
   Memcheck:Leak
   fun:_Znwj
   fun:_ZN14QObjectPrivate13addConnectionEiPNS_10ConnectionE
   fun:_ZN18QMetaObjectPrivate7connectEPK7QObjectiS2_iiPi
   fun:_ZN7QObject7connectEPKS_PKcS1_S3_N2Qt14ConnectionTypeE
   fun:_ZN12QActionGroup9addActionEP7QAction
   fun:_ZN3gui6window8house_qt15_create_actionsEv
   fun:_ZN3gui6window8house_qtC1Ev
   fun:_ZN3gui12house_app_qt5startEv
   fun:_ZN17app_functionality8house_qt3runEv
   fun:_Z7do_mainRiPPc
   fun:main
}
{
   <insert_a_suppression_name_here>
   Memcheck:Leak
   fun:_Znwj
   fun:_ZN12QKeySequenceC1Eiiii
   fun:_ZN3gui6window8house_qt15_create_actionsEv
   fun:_ZN3gui6window8house_qtC1Ev
   fun:_ZN3gui12house_app_qt5startEv
   fun:_ZN17app_functionality8house_qt3runEv
   fun:_Z7do_mainRiPPc
   fun:main
}
{
   <insert_a_suppression_name_here>
   Memcheck:Leak
   fun:_Znwj
   fun:_ZN14QObjectPrivate13addConnectionEiPNS_10ConnectionE
   fun:_ZN18QMetaObjectPrivate7connectEPK7QObjectiS2_iiPi
   fun:_ZN7QObject7connectEPKS_PKcS1_S3_N2Qt14ConnectionTypeE
   fun:_ZN18QToolButtonPrivate4initEv
   fun:_ZN11QToolButtonC2EP7QWidget
   fun:_ZN17QMenuBarExtensionC1EP7QWidget
   fun:_ZN15QMenuBarPrivate4initEv
   fun:_ZN8QMenuBarC1EP7QWidget
   fun:_ZNK11QMainWindow7menuBarEv
   fun:_ZN3gui6window8house_qt13_create_menusEv
   fun:_ZN3gui6window8house_qtC1Ev
}
{
   <insert_a_suppression_name_here>
   Memcheck:Leak
   fun:_Znwj
   fun:_ZN14QObjectPrivate13addConnectionEiPNS_10ConnectionE
   fun:_ZN18QMetaObjectPrivate7connectEPK7QObjectiS2_iiPi
   fun:_ZN7QObject7connectEPKS_PKcS1_S3_N2Qt14ConnectionTypeE
   fun:_ZN18QToolButtonPrivate4initEv
   fun:_ZN11QToolButtonC2EP7QWidget
   fun:_ZN17QToolBarExtensionC1EP7QWidget
   fun:_ZN14QToolBarLayoutC1EP7QWidget
   fun:_ZN15QToolBarPrivate4initEv
   fun:_ZN8QToolBarC1EP7QWidget
   fun:_ZN11QMainWindow10addToolBarERK7QString
   fun:_ZN3gui6window8house_qt16_create_toolbarsEv
}
{
   <insert_a_suppression_name_here>
   Memcheck:Leak
   fun:_Znwj
   fun:_ZN14QObjectPrivate13addConnectionEiPNS_10ConnectionE
   fun:_ZN18QMetaObjectPrivate7connectEPK7QObjectiS2_iiPi
   fun:_ZN7QObject7connectEPKS_PKcS1_S3_N2Qt14ConnectionTypeE
   fun:_ZN14QToolBarLayoutC1EP7QWidget
   fun:_ZN15QToolBarPrivate4initEv
   fun:_ZN8QToolBarC1EP7QWidget
   fun:_ZN11QMainWindow10addToolBarERK7QString
   fun:_ZN3gui6window8house_qt16_create_toolbarsEv
   fun:_ZN3gui6window8house_qtC1Ev
   fun:_ZN3gui12house_app_qt5startEv
   fun:_ZN17app_functionality8house_qt3runEv
}
{
   <insert_a_suppression_name_here>
   Memcheck:Leak
   fun:_Znwj
   fun:_ZN14QObjectPrivate13addConnectionEiPNS_10ConnectionE
   fun:_ZN18QMetaObjectPrivate7connectEPK7QObjectiS2_iiPi
   fun:_ZN7QObject7connectEPKS_PKcS1_S3_N2Qt14ConnectionTypeE
   fun:_ZN15QToolBarPrivate4initEv
   fun:_ZN8QToolBarC1EP7QWidget
   fun:_ZN11QMainWindow10addToolBarERK7QString
   fun:_ZN3gui6window8house_qt16_create_toolbarsEv
   fun:_ZN3gui6window8house_qtC1Ev
   fun:_ZN3gui12house_app_qt5startEv
   fun:_ZN17app_functionality8house_qt3runEv
   fun:_Z7do_mainRiPPc
}
{
   <insert_a_suppression_name_here>
   Memcheck:Leak
   fun:_Znwj
   fun:_ZN14QObjectPrivate13addConnectionEiPNS_10ConnectionE
   fun:_ZN18QMetaObjectPrivate7connectEPK7QObjectiS2_iiPi
   fun:_ZN7QObject7connectEPKS_PKcS1_S3_N2Qt14ConnectionTypeE
   fun:_ZN11QMainWindow10addToolBarEN2Qt11ToolBarAreaEP8QToolBar
   fun:_ZN11QMainWindow10addToolBarEP8QToolBar
   fun:_ZN11QMainWindow10addToolBarERK7QString
   fun:_ZN3gui6window8house_qt16_create_toolbarsEv
   fun:_ZN3gui6window8house_qtC1Ev
   fun:_ZN3gui12house_app_qt5startEv
   fun:_ZN17app_functionality8house_qt3runEv
   fun:_Z7do_mainRiPPc
}
{
   <insert_a_suppression_name_here>
   Memcheck:Leak
   fun:_Znwj
   fun:_ZN14QToolBarLayout10createItemEP7QAction
   fun:_ZN14QToolBarLayout12insertActionEiP7QAction
   fun:_ZN8QToolBar11actionEventEP12QActionEvent
   fun:_ZN7QWidget5eventEP6QEvent
   fun:_ZN8QToolBar5eventEP6QEvent
   fun:_ZN19QApplicationPrivate13notify_helperEP7QObjectP6QEvent
   fun:_ZN12QApplication6notifyEP7QObjectP6QEvent
   fun:_ZN16QCoreApplication14notifyInternalEP7QObjectP6QEvent
   fun:_ZN7QWidget12insertActionEP7QActionS1_
   fun:_ZN7QWidget9addActionEP7QAction
   fun:_ZN3gui6window8house_qt16_create_toolbarsEv
}
{
   <insert_a_suppression_name_here>
   Memcheck:Leak
   fun:_Znwj
   fun:_ZN14QObjectPrivate13addConnectionEiPNS_10ConnectionE
   fun:_ZN18QMetaObjectPrivate7connectEPK7QObjectiS2_iiPi
   fun:_ZN7QObject7connectEPKS_PKcS1_S3_N2Qt14ConnectionTypeE
   fun:_ZN18QToolButtonPrivate4initEv
   fun:_ZN11QToolButtonC2EP7QWidget
   fun:_ZN17QToolBarExtensionC1EP7QWidget
   fun:_ZN14QToolBarLayoutC1EP7QWidget
   fun:_ZN15QToolBarPrivate4initEv
   fun:_ZN8QToolBarC1EP7QWidget
   fun:_ZN11QMainWindow10addToolBarERK7QString
   fun:_ZN3gui6window8house_qt16_create_toolbarsEv
}
{
   <insert_a_suppression_name_here>
   Memcheck:Leak
   fun:_Znwj
   fun:_ZN14QObjectPrivate13addConnectionEiPNS_10ConnectionE
   fun:_ZN18QMetaObjectPrivate7connectEPK7QObjectiS2_iiPi
   fun:_ZN7QObject7connectEPKS_PKcS1_S3_N2Qt14ConnectionTypeE
   fun:_ZN14QToolBarLayoutC1EP7QWidget
   fun:_ZN15QToolBarPrivate4initEv
   fun:_ZN8QToolBarC1EP7QWidget
   fun:_ZN11QMainWindow10addToolBarERK7QString
   fun:_ZN3gui6window8house_qt16_create_toolbarsEv
   fun:_ZN3gui6window8house_qtC1Ev
   fun:_ZN3gui12house_app_qt5startEv
   fun:_ZN17app_functionality8house_qt3runEv
}
{
   <insert_a_suppression_name_here>
   Memcheck:Leak
   fun:_Znwj
   fun:_ZN14QObjectPrivate13addConnectionEiPNS_10ConnectionE
   fun:_ZN18QMetaObjectPrivate7connectEPK7QObjectiS2_iiPi
   fun:_ZN7QObject7connectEPKS_PKcS1_S3_N2Qt14ConnectionTypeE
   fun:_ZN15QToolBarPrivate4initEv
   fun:_ZN8QToolBarC1EP7QWidget
   fun:_ZN11QMainWindow10addToolBarERK7QString
   fun:_ZN3gui6window8house_qt16_create_toolbarsEv
   fun:_ZN3gui6window8house_qtC1Ev
   fun:_ZN3gui12house_app_qt5startEv
   fun:_ZN17app_functionality8house_qt3runEv
   fun:_Z7do_mainRiPPc
}
{
   <insert_a_suppression_name_here>
   Memcheck:Leak
   fun:_Znwj
   fun:_ZN14QToolBarLayout10createItemEP7QAction
   fun:_ZN14QToolBarLayout12insertActionEiP7QAction
   fun:_ZN8QToolBar11actionEventEP12QActionEvent
   fun:_ZN7QWidget5eventEP6QEvent
   fun:_ZN8QToolBar5eventEP6QEvent
   fun:_ZN19QApplicationPrivate13notify_helperEP7QObjectP6QEvent
   fun:_ZN12QApplication6notifyEP7QObjectP6QEvent
   fun:_ZN16QCoreApplication14notifyInternalEP7QObjectP6QEvent
   fun:_ZN7QWidget12insertActionEP7QActionS1_
   fun:_ZN7QWidget9addActionEP7QAction
   fun:_ZN3gui6window8house_qt16_create_toolbarsEv
}
{
   <insert_a_suppression_name_here>
   Memcheck:Leak
   fun:_Znwj
   fun:_ZN14QToolBarLayout10createItemEP7QAction
   fun:_ZN14QToolBarLayout12insertActionEiP7QAction
   fun:_ZN8QToolBar11actionEventEP12QActionEvent
   fun:_ZN7QWidget5eventEP6QEvent
   fun:_ZN8QToolBar5eventEP6QEvent
   fun:_ZN19QApplicationPrivate13notify_helperEP7QObjectP6QEvent
   fun:_ZN12QApplication6notifyEP7QObjectP6QEvent
   fun:_ZN16QCoreApplication14notifyInternalEP7QObjectP6QEvent
   fun:_ZN7QWidget12insertActionEP7QActionS1_
   fun:_ZN7QWidget9addActionEP7QAction
   fun:_ZN3gui6window8house_qt16_create_toolbarsEv
}
{
   <insert_a_suppression_name_here>
   Memcheck:Leak
   fun:_Znwj
   fun:_ZN14QToolBarLayout10createItemEP7QAction
   fun:_ZN14QToolBarLayout12insertActionEiP7QAction
   fun:_ZN8QToolBar11actionEventEP12QActionEvent
   fun:_ZN7QWidget5eventEP6QEvent
   fun:_ZN8QToolBar5eventEP6QEvent
   fun:_ZN19QApplicationPrivate13notify_helperEP7QObjectP6QEvent
   fun:_ZN12QApplication6notifyEP7QObjectP6QEvent
   fun:_ZN16QCoreApplication14notifyInternalEP7QObjectP6QEvent
   fun:_ZN7QWidget12insertActionEP7QActionS1_
   fun:_ZN7QWidget9addActionEP7QAction
   fun:_ZN3gui6window8house_qt16_create_toolbarsEv
}
{
   <insert_a_suppression_name_here>
   Memcheck:Leak
   fun:_Znwj
   fun:_ZN14QToolBarLayout10createItemEP7QAction
   fun:_ZN14QToolBarLayout12insertActionEiP7QAction
   fun:_ZN8QToolBar11actionEventEP12QActionEvent
   fun:_ZN7QWidget5eventEP6QEvent
   fun:_ZN8QToolBar5eventEP6QEvent
   fun:_ZN19QApplicationPrivate13notify_helperEP7QObjectP6QEvent
   fun:_ZN12QApplication6notifyEP7QObjectP6QEvent
   fun:_ZN16QCoreApplication14notifyInternalEP7QObjectP6QEvent
   fun:_ZN7QWidget12insertActionEP7QActionS1_
   fun:_ZN7QWidget9addActionEP7QAction
   fun:_ZN3gui6window8house_qt16_create_toolbarsEv
}
{
   <insert_a_suppression_name_here>
   Memcheck:Leak
   fun:_Znwj
   fun:_ZN14QToolBarLayout10createItemEP7QAction
   fun:_ZN14QToolBarLayout12insertActionEiP7QAction
   fun:_ZN8QToolBar11actionEventEP12QActionEvent
   fun:_ZN7QWidget5eventEP6QEvent
   fun:_ZN8QToolBar5eventEP6QEvent
   fun:_ZN19QApplicationPrivate13notify_helperEP7QObjectP6QEvent
   fun:_ZN12QApplication6notifyEP7QObjectP6QEvent
   fun:_ZN16QCoreApplication14notifyInternalEP7QObjectP6QEvent
   fun:_ZN7QWidget12insertActionEP7QActionS1_
   fun:_ZN7QWidget9addActionEP7QAction
   fun:_ZN3gui6window8house_qt16_create_toolbarsEv
}
{
   <insert_a_suppression_name_here>
   Memcheck:Leak
   fun:_Znwj
   fun:_ZN14QToolBarLayout10createItemEP7QAction
   fun:_ZN14QToolBarLayout12insertActionEiP7QAction
   fun:_ZN8QToolBar11actionEventEP12QActionEvent
   fun:_ZN7QWidget5eventEP6QEvent
   fun:_ZN8QToolBar5eventEP6QEvent
   fun:_ZN19QApplicationPrivate13notify_helperEP7QObjectP6QEvent
   fun:_ZN12QApplication6notifyEP7QObjectP6QEvent
   fun:_ZN16QCoreApplication14notifyInternalEP7QObjectP6QEvent
   fun:_ZN7QWidget12insertActionEP7QActionS1_
   fun:_ZN7QWidget9addActionEP7QAction
   fun:_ZN3gui6window8house_qt16_create_toolbarsEv
}
{
   <insert_a_suppression_name_here>
   Memcheck:Leak
   fun:_Znwj
   fun:_ZN14QToolBarLayout10createItemEP7QAction
   fun:_ZN14QToolBarLayout12insertActionEiP7QAction
   fun:_ZN8QToolBar11actionEventEP12QActionEvent
   fun:_ZN7QWidget5eventEP6QEvent
   fun:_ZN8QToolBar5eventEP6QEvent
   fun:_ZN19QApplicationPrivate13notify_helperEP7QObjectP6QEvent
   fun:_ZN12QApplication6notifyEP7QObjectP6QEvent
   fun:_ZN16QCoreApplication14notifyInternalEP7QObjectP6QEvent
   fun:_ZN7QWidget12insertActionEP7QActionS1_
   fun:_ZN7QWidget9addActionEP7QAction
   fun:_ZN3gui6window8house_qt16_create_toolbarsEv
}
{
   <insert_a_suppression_name_here>
   Memcheck:Leak
   fun:_Znwj
   fun:_ZN14QToolBarLayout10createItemEP7QAction
   fun:_ZN14QToolBarLayout12insertActionEiP7QAction
   fun:_ZN8QToolBar11actionEventEP12QActionEvent
   fun:_ZN7QWidget5eventEP6QEvent
   fun:_ZN8QToolBar5eventEP6QEvent
   fun:_ZN19QApplicationPrivate13notify_helperEP7QObjectP6QEvent
   fun:_ZN12QApplication6notifyEP7QObjectP6QEvent
   fun:_ZN16QCoreApplication14notifyInternalEP7QObjectP6QEvent
   fun:_ZN7QWidget12insertActionEP7QActionS1_
   fun:_ZN7QWidget9addActionEP7QAction
   fun:_ZN3gui6window8house_qt16_create_toolbarsEv
}
{
   <insert_a_suppression_name_here>
   Memcheck:Leak
   fun:_Znwj
   fun:_ZN14QObjectPrivate13addConnectionEiPNS_10ConnectionE
   fun:_ZN18QMetaObjectPrivate7connectEPK7QObjectiS2_iiPi
   fun:_ZN7QObject7connectEPKS_PKcS1_S3_N2Qt14ConnectionTypeE
   fun:_ZN14QToolBarLayoutC1EP7QWidget
   fun:_ZN15QToolBarPrivate4initEv
   fun:_ZN8QToolBarC1EP7QWidget
   fun:_ZN11QMainWindow10addToolBarERK7QString
   fun:_ZN3gui6window8house_qt16_create_toolbarsEv
   fun:_ZN3gui6window8house_qtC1Ev
   fun:_ZN3gui12house_app_qt5startEv
   fun:_ZN17app_functionality8house_qt3runEv
}
{
   <insert_a_suppression_name_here>
   Memcheck:Leak
   fun:_Znwj
   fun:_ZN14QObjectPrivate13addConnectionEiPNS_10ConnectionE
   fun:_ZN18QMetaObjectPrivate7connectEPK7QObjectiS2_iiPi
   fun:_ZN7QObject7connectEPKS_PKcS1_S3_N2Qt14ConnectionTypeE
   fun:_ZN15QToolBarPrivate4initEv
   fun:_ZN8QToolBarC1EP7QWidget
   fun:_ZN11QMainWindow10addToolBarERK7QString
   fun:_ZN3gui6window8house_qt16_create_toolbarsEv
   fun:_ZN3gui6window8house_qtC1Ev
   fun:_ZN3gui12house_app_qt5startEv
   fun:_ZN17app_functionality8house_qt3runEv
   fun:_Z7do_mainRiPPc
}
{
   <insert_a_suppression_name_here>
   Memcheck:Leak
   fun:_Znwj
   fun:_ZN14QObjectPrivate13addConnectionEiPNS_10ConnectionE
   fun:_ZN18QMetaObjectPrivate7connectEPK7QObjectiS2_iiPi
   fun:_ZN7QObject7connectEPKS_PKcS1_S3_N2Qt14ConnectionTypeE
   fun:_ZN27QAbstractTextDocumentLayout15registerHandlerEiP7QObject
   fun:_ZN19QTextDocumentLayoutC1EP13QTextDocument
   fun:_ZNK13QTextDocument14documentLayoutEv
   fun:_ZN19QTextControlPrivate24_q_documentLayoutChangedEv
   fun:_ZN19QTextControlPrivate10setContentEN2Qt10TextFormatERK7QStringP13QTextDocument
   fun:_ZN19QTextControlPrivate4initEN2Qt10TextFormatERK7QStringP13QTextDocument
   fun:_ZN12QTextControlC2EP7QObject
   fun:_ZN16QTextEditPrivate4initERK7QString
}
{
   <insert_a_suppression_name_here>
   Memcheck:Leak
   fun:_Znwj
   fun:_ZN3gui4view8users_qt20_create_context_menuEv
   fun:_ZN3gui4view8users_qtC1EP7QWidgetRKSs
   fun:_ZN3gui6window8house_qt15_create_widgetsEv
   fun:_ZN3gui6window8house_qtC1Ev
   fun:_ZN3gui12house_app_qt5startEv
   fun:_ZN17app_functionality8house_qt3runEv
   fun:_Z7do_mainRiPPc
   fun:main
}
{
   <insert_a_suppression_name_here>
   Memcheck:Leak
   fun:_Znwj
   fun:_ZN3gui4view8users_qt20_create_context_menuEv
   fun:_ZN3gui4view8users_qtC1EP7QWidgetRKSs
   fun:_ZN3gui6window8house_qt15_create_widgetsEv
   fun:_ZN3gui6window8house_qtC1Ev
   fun:_ZN3gui12house_app_qt5startEv
   fun:_ZN17app_functionality8house_qt3runEv
   fun:_Z7do_mainRiPPc
   fun:main
}
{
   <insert_a_suppression_name_here>
   Memcheck:Leak
   fun:_Znwj
   fun:_ZN14QObjectPrivate13addConnectionEiPNS_10ConnectionE
   fun:_ZN18QMetaObjectPrivate7connectEPK7QObjectiS2_iiPi
   fun:_ZN7QObject7connectEPKS_PKcS1_S3_N2Qt14ConnectionTypeE
   fun:_ZN12QActionGroup9addActionEP7QAction
   fun:_ZN3gui4view8users_qt20_create_context_menuEv
   fun:_ZN3gui4view8users_qtC1EP7QWidgetRKSs
   fun:_ZN3gui6window8house_qt15_create_widgetsEv
   fun:_ZN3gui6window8house_qtC1Ev
   fun:_ZN3gui12house_app_qt5startEv
   fun:_ZN17app_functionality8house_qt3runEv
   fun:_Z7do_mainRiPPc
}
{
   <insert_a_suppression_name_here>
   Memcheck:Leak
   fun:_Znwj
   fun:_ZN14QObjectPrivate13addConnectionEiPNS_10ConnectionE
   fun:_ZN18QMetaObjectPrivate7connectEPK7QObjectiS2_iiPi
   fun:_ZN7QObject7connectEPKS_PKcS1_S3_N2Qt14ConnectionTypeE
   fun:_ZN12QActionGroup9addActionEP7QAction
   fun:_ZN3gui4view8users_qt20_create_context_menuEv
   fun:_ZN3gui4view8users_qtC1EP7QWidgetRKSs
   fun:_ZN3gui6window8house_qt15_create_widgetsEv
   fun:_ZN3gui6window8house_qtC1Ev
   fun:_ZN3gui12house_app_qt5startEv
   fun:_ZN17app_functionality8house_qt3runEv
   fun:_Z7do_mainRiPPc
}
{
   <insert_a_suppression_name_here>
   Memcheck:Leak
   fun:_Znwj
   fun:_ZN14QObjectPrivate13addConnectionEiPNS_10ConnectionE
   fun:_ZN18QMetaObjectPrivate7connectEPK7QObjectiS2_iiPi
   fun:_ZN7QObject7connectEPKS_PKcS1_S3_N2Qt14ConnectionTypeE
   fun:_ZN12QActionGroup9addActionEP7QAction
   fun:_ZN3gui4view8users_qt20_create_context_menuEv
   fun:_ZN3gui4view8users_qtC1EP7QWidgetRKSs
   fun:_ZN3gui6window8house_qt15_create_widgetsEv
   fun:_ZN3gui6window8house_qtC1Ev
   fun:_ZN3gui12house_app_qt5startEv
   fun:_ZN17app_functionality8house_qt3runEv
   fun:_Z7do_mainRiPPc
}
{
   <insert_a_suppression_name_here>
   Memcheck:Leak
   fun:_Znwj
   fun:_ZN14QObjectPrivate13addConnectionEiPNS_10ConnectionE
   fun:_ZN18QMetaObjectPrivate7connectEPK7QObjectiS2_iiPi
   fun:_ZN7QObject7connectEPKS_PKcS1_S3_N2Qt14ConnectionTypeE
   fun:_ZN12QActionGroup9addActionEP7QAction
   fun:_ZN3gui4view8users_qt20_create_context_menuEv
   fun:_ZN3gui4view8users_qtC1EP7QWidgetRKSs
   fun:_ZN3gui6window8house_qt15_create_widgetsEv
   fun:_ZN3gui6window8house_qtC1Ev
   fun:_ZN3gui12house_app_qt5startEv
   fun:_ZN17app_functionality8house_qt3runEv
   fun:_Z7do_mainRiPPc
}
{
   <insert_a_suppression_name_here>
   Memcheck:Leak
   fun:_Znwj
   fun:_ZN9QSplitter12createHandleEv
   fun:_ZN16QSplitterPrivate12insertWidgetEiP7QWidget
   fun:_ZN16QSplitterPrivate19insertWidget_helperEiP7QWidgetb
   fun:_ZN9QSplitter12insertWidgetEiP7QWidget
   fun:_ZN9QSplitter9addWidgetEP7QWidget
   fun:_ZN3gui6window8house_qt14_create_layoutEv
   fun:_ZN3gui6window8house_qtC1Ev
   fun:_ZN3gui12house_app_qt5startEv
   fun:_ZN17app_functionality8house_qt3runEv
   fun:_Z7do_mainRiPPc
   fun:main
}
{
   <insert_a_suppression_name_here>
   Memcheck:Leak
   fun:_Znwj
   fun:_ZN9QSplitter12createHandleEv
   fun:_ZN16QSplitterPrivate12insertWidgetEiP7QWidget
   fun:_ZN16QSplitterPrivate19insertWidget_helperEiP7QWidgetb
   fun:_ZN9QSplitter12insertWidgetEiP7QWidget
   fun:_ZN9QSplitter9addWidgetEP7QWidget
   fun:_ZN3gui6window8house_qt14_create_layoutEv
   fun:_ZN3gui6window8house_qtC1Ev
   fun:_ZN3gui12house_app_qt5startEv
   fun:_ZN17app_functionality8house_qt3runEv
   fun:_Z7do_mainRiPPc
   fun:main
}
{
   <insert_a_suppression_name_here>
   Memcheck:Leak
   fun:_Znwj
   fun:_ZN5QListI22QToolBarAreaLayoutItemE6appendERKS0_
   fun:_ZN18QToolBarAreaLayout12restoreStateER11QDataStreamRK5QListIP8QToolBarEhbb
   fun:_ZN22QMainWindowLayoutState12restoreStateER11QDataStreamRKS_
   fun:_ZN17QMainWindowLayout12restoreStateER11QDataStream
   fun:_ZN11QMainWindow12restoreStateERK10QByteArrayi
   fun:_ZN3gui6window21size_restoring_windowI11QMainWindowE4showEv
   fun:_ZN3gui12house_app_qt5startEv
   fun:_ZN17app_functionality8house_qt3runEv
   fun:_Z7do_mainRiPPc
   fun:main
}
{
   <insert_a_suppression_name_here>
   Memcheck:Leak
   fun:_Znwj
   fun:_ZN17QX11WindowSurfaceC1EP7QWidget
   fun:_ZN14QWidgetPrivate30createDefaultWindowSurface_sysEv
   fun:_ZN14QWidgetPrivate26createDefaultWindowSurfaceEv
   fun:_ZN19QWidgetBackingStoreC1EP7QWidget
   fun:_ZN26QWidgetBackingStoreTracker6createEP7QWidget
   fun:_ZN7QWidget6createEmbb
   fun:_ZN7QWidget10setVisibleEb
   fun:_ZN7QWidget4showEv
   fun:_ZN3gui6window21size_restoring_windowI11QMainWindowE4showEv
   fun:_ZN3gui12house_app_qt5startEv
   fun:_ZN17app_functionality8house_qt3runEv
}
{
   <insert_a_suppression_name_here>
   Memcheck:Leak
   fun:_Znwj
   fun:_ZNK14QX11PixmapData11paintEngineEv
   fun:_ZNK7QPixmap11paintEngineEv
   fun:_ZN14QWidgetPrivate10drawWidgetEP12QPaintDeviceRK7QRegionRK6QPointiP8QPainterP19QWidgetBackingStore
   fun:_ZN19QWidgetBackingStore4syncEv
   fun:_ZN19QWidgetBackingStore4syncEP7QWidgetRK7QRegion
   fun:_ZN14QWidgetPrivate16syncBackingStoreERK7QRegion
   fun:_ZN9QETWidget19translatePaintEventEPK7_XEvent
   fun:_ZN12QApplication15x11ProcessEventEP7_XEvent
   fun:_ZN19QEventDispatcherX1113processEventsE6QFlagsIN10QEventLoop17ProcessEventsFlagEE
   fun:_ZN10QEventLoop13processEventsE6QFlagsINS_17ProcessEventsFlagEE
   fun:_ZN10QEventLoop4execE6QFlagsINS_17ProcessEventsFlagEE
}
{
   <insert_a_suppression_name_here>
   Memcheck:Leak
   fun:_Znwj
   fun:_ZN22QX11PaintEnginePrivate4initEv
   fun:_ZN15QX11PaintEngineC1Ev
   fun:_ZNK14QX11PixmapData11paintEngineEv
   fun:_ZNK7QPixmap11paintEngineEv
   fun:_ZN14QWidgetPrivate10drawWidgetEP12QPaintDeviceRK7QRegionRK6QPointiP8QPainterP19QWidgetBackingStore
   fun:_ZN19QWidgetBackingStore4syncEv
   fun:_ZN19QWidgetBackingStore4syncEP7QWidgetRK7QRegion
   fun:_ZN14QWidgetPrivate16syncBackingStoreERK7QRegion
   fun:_ZN9QETWidget19translatePaintEventEPK7_XEvent
   fun:_ZN12QApplication15x11ProcessEventEP7_XEvent
   fun:_ZN19QEventDispatcherX1113processEventsE6QFlagsIN10QEventLoop17ProcessEventsFlagEE
}
{
   <insert_a_suppression_name_here>
   Memcheck:Leak
   fun:_Znwj
   fun:_ZN15QTreeWidgetItemC1EP11QTreeWidgeti
   fun:_ZN3gui4view8users_qt15_add_group_itemERNS1_12_parent_itemEi
   fun:_ZN3gui4view8users_qt32_reserve_place_for_item_in_groupEi
   fun:_ZN3gui4view8users_qt14_add_user_itemEPNS0_12user_item_qtEi
   fun:_ZN3gui4view8users_qt9_new_userERKN11chat_gaming4userEi
   fun:_ZN3gui4view8users_qt12_update_userERKN11chat_gaming4userEi
   fun:_ZN3gui4view8users_qt12_update_userERKN11chat_gaming8user_keyEi
   fun:_ZN3gui4view8users_qt14handle_messageEP7message
   fun:_ZN3gui6window8house_qt14handle_messageEP7message
   fun:_ZN3gui12house_app_qt17_handle_messengerEv
   fun:_ZN3gui12house_app_qt5eventEP6QEvent
}
{
   <insert_a_suppression_name_here>
   Memcheck:Leak
   fun:malloc
   fun:_Z7qMallocj
   fun:_ZN11QVectorData8allocateEii
   fun:_ZN7QVectorIS_I15QWidgetItemDataEE7reallocEii
   fun:_ZN7QVectorIS_I15QWidgetItemDataEE7reserveEi
   fun:_ZN15QTreeWidgetItem11insertChildEiPS_
   fun:_ZN15QTreeWidgetItem8addChildEPS_
   fun:_ZN15QTreeWidgetItemC1EP11QTreeWidgeti
   fun:_ZN3gui4view8users_qt15_add_group_itemERNS1_12_parent_itemEi
   fun:_ZN3gui4view8users_qt32_reserve_place_for_item_in_groupEi
   fun:_ZN3gui4view8users_qt14_add_user_itemEPNS0_12user_item_qtEi
   fun:_ZN3gui4view8users_qt9_new_userERKN11chat_gaming4userEi
}
{
   <insert_a_suppression_name_here>
   Memcheck:Leak
   fun:malloc
   fun:_Z7qMallocj
   fun:_ZN11QVectorData8allocateEii
   fun:_ZN7QVectorIS_IP25QPersistentModelIndexDataEE7reallocEii
   fun:_ZN7QVectorIS_IP25QPersistentModelIndexDataEE6appendERKS2_
   fun:_ZN25QAbstractItemModelPrivate20rowsAboutToBeRemovedERK11QModelIndexii
   fun:_ZN18QAbstractItemModel15beginRemoveRowsERK11QModelIndexii
   fun:_ZN10QTreeModel16beginRemoveItemsEP15QTreeWidgetItemii
   fun:_ZN15QTreeWidgetItemD2Ev
   fun:_ZN3gui4view12user_item_qtD0Ev
   fun:_ZN3gui4view8users_qt14_del_user_itemEPNS0_12user_item_qtEi
   fun:_ZN3gui4view8users_qt15_remove_droppedEv
}
{
   <insert_a_suppression_name_here>
   Memcheck:Leak
   fun:_Znwj
   fun:_ZNSs4_Rep9_S_createEjjRKSaIcE
   obj:/usr/lib/libstdc++.so.6.0.13
   fun:_ZNSsC1EPKcRKSaIcE
   fun:_ZN3gui6window8house_qtC1Ev
   fun:_ZN3gui12house_app_qt5startEv
   fun:_ZN17app_functionality8house_qt3runEv
   fun:_Z7do_mainRiPPc
   fun:main
}
{
   <insert_a_suppression_name_here>
   Memcheck:Leak
   fun:_Znwj
   fun:_ZN11QTextFormat11setPropertyEiRK8QVariant
   fun:_ZN11QTextFormat13setForegroundERK6QBrush
   fun:_ZN3gui4view7chat_qtC1EP7QWidgetRKSs
   fun:_ZN3gui6window8house_qt15_create_widgetsEv
   fun:_ZN3gui6window8house_qtC1Ev
   fun:_ZN3gui12house_app_qt5startEv
   fun:_ZN17app_functionality8house_qt3runEv
   fun:_Z7do_mainRiPPc
   fun:main
}
{
   <insert_a_suppression_name_here>
   Memcheck:Leak
   fun:_Znwj
   fun:_ZN11QTextFormat11setPropertyEiRK8QVariant
   fun:_ZN11QTextFormat13setForegroundERK6QBrush
   fun:_ZN3gui4view7chat_qtC1EP7QWidgetRKSs
   fun:_ZN3gui6window8house_qt15_create_widgetsEv
   fun:_ZN3gui6window8house_qtC1Ev
   fun:_ZN3gui12house_app_qt5startEv
   fun:_ZN17app_functionality8house_qt3runEv
   fun:_Z7do_mainRiPPc
   fun:main
}
{
   <insert_a_suppression_name_here>
   Memcheck:Leak
   fun:_Znwj
   fun:_ZN11QTextFormat11setPropertyEiRK8QVariant
   fun:_ZN11QTextFormat13setForegroundERK6QBrush
   fun:_ZN3gui4view7chat_qtC1EP7QWidgetRKSs
   fun:_ZN3gui6window8house_qt15_create_widgetsEv
   fun:_ZN3gui6window8house_qtC1Ev
   fun:_ZN3gui12house_app_qt5startEv
   fun:_ZN17app_functionality8house_qt3runEv
   fun:_Z7do_mainRiPPc
   fun:main
}
{
   <insert_a_suppression_name_here>
   Memcheck:Leak
   fun:_Znwj
   fun:_ZN11QTextFormat11setPropertyEiRK8QVariant
   fun:_ZN11QTextFormat13setForegroundERK6QBrush
   fun:_ZN3gui4view7chat_qtC1EP7QWidgetRKSs
   fun:_ZN3gui6window8house_qt15_create_widgetsEv
   fun:_ZN3gui6window8house_qtC1Ev
   fun:_ZN3gui12house_app_qt5startEv
   fun:_ZN17app_functionality8house_qt3runEv
   fun:_Z7do_mainRiPPc
   fun:main
}
{
   <insert_a_suppression_name_here>
   Memcheck:Leak
   fun:_Znwj
   fun:_ZN11QTextFormat11setPropertyEiRK8QVariant
   fun:_ZN15QTextCharFormat9setAnchorEb
   fun:_ZN3gui4view7chat_qtC1EP7QWidgetRKSs
   fun:_ZN3gui6window8house_qt15_create_widgetsEv
   fun:_ZN3gui6window8house_qtC1Ev
   fun:_ZN3gui12house_app_qt5startEv
   fun:_ZN17app_functionality8house_qt3runEv
   fun:_Z7do_mainRiPPc
   fun:main
}
{
   <insert_a_suppression_name_here>
   Memcheck:Leak
   fun:malloc
   fun:_Z7qMallocj
   fun:_ZN11QVectorData8allocateEii
   fun:_ZN7QVectorIN14QObjectPrivate14ConnectionListEE7reallocEii
   fun:_ZN7QVectorIN14QObjectPrivate14ConnectionListEE6resizeEi
   fun:_ZN14QObjectPrivate13addConnectionEiPNS_10ConnectionE
   fun:_ZN18QMetaObjectPrivate7connectEPK7QObjectiS2_iiPi
   fun:_ZN7QObject7connectEPKS_PKcS1_S3_N2Qt14ConnectionTypeE
   fun:_ZN27QAbstractTextDocumentLayout15registerHandlerEiP7QObject
   fun:_ZN19QTextDocumentLayoutC1EP13QTextDocument
   fun:_ZNK13QTextDocument14documentLayoutEv
   fun:_ZN19QTextControlPrivate24_q_documentLayoutChangedEv
}
{
   <insert_a_suppression_name_here>
   Memcheck:Leak
   fun:malloc
   fun:_Z7qMallocj
   fun:_ZN11QVectorData8allocateEii
   fun:_ZN7QVectorIiE7reallocEii
   fun:_ZN7QVectorIiE6appendERKi
   fun:_ZN21QTextFormatCollection17createObjectIndexERK11QTextFormat
   fun:_ZN20QTextDocumentPrivate12createObjectERK11QTextFormati
   fun:_ZNK20QTextDocumentPrivate9rootFrameEv
   fun:_ZN19QTextDocumentLayout8doLayoutEiii
   fun:_ZNK26QTextDocumentLayoutPrivate24ensureLayoutedByPositionEi
   fun:_ZNK26QTextDocumentLayoutPrivate10layoutStepEv
   fun:_ZN19QTextDocumentLayout15documentChangedEiii
}
{
   <insert_a_suppression_name_here>
   Memcheck:Leak
   fun:malloc
   fun:_Z7qMallocj
   fun:_ZN7QString7reallocEi
   fun:_ZN7QString6appendE5QChar
   fun:_ZN20QTextDocumentPrivate11insertBlockERK5QChariiiN16QTextUndoCommand9OperationE
   fun:_ZN20QTextDocumentPrivate11insertBlockEiiiN16QTextUndoCommand9OperationE
   fun:_ZN20QTextDocumentPrivate4initEv
   fun:_ZN20QTextDocumentPrivate5clearEv
   fun:_ZN13QTextDocument5clearEv
   fun:_ZN19QTextControlPrivate10setContentEN2Qt10TextFormatERK7QStringP13QTextDocument
   fun:_ZN19QTextControlPrivate4initEN2Qt10TextFormatERK7QStringP13QTextDocument
   fun:_ZN12QTextControlC2EP7QObject
}
{
   <insert_a_suppression_name_here>
   Memcheck:Leak
   fun:_Znwj
   fun:_ZN18QSharedDataPointerI18QTextFormatPrivateE13detach_helperEv
   fun:_ZN21QTextFormatCollection14indexForFormatERK11QTextFormat
   fun:_ZN21QTextFormatCollection17createObjectIndexERK11QTextFormat
   fun:_ZN20QTextDocumentPrivate12createObjectERK11QTextFormati
   fun:_ZNK20QTextDocumentPrivate9rootFrameEv
   fun:_ZN19QTextDocumentLayout8doLayoutEiii
   fun:_ZNK26QTextDocumentLayoutPrivate24ensureLayoutedByPositionEi
   fun:_ZNK26QTextDocumentLayoutPrivate10layoutStepEv
   fun:_ZN19QTextDocumentLayout15documentChangedEiii
   fun:_ZN20QTextDocumentPrivate10finishEditEv
   fun:_ZN20QTextDocumentPrivate12endEditBlockEv
}
{
   <insert_a_suppression_name_here>
   Memcheck:Leak
   fun:_Znwj
   fun:_ZN5QListI22QToolBarAreaLayoutLineE6appendERKS0_
   fun:_ZN18QToolBarAreaLayout12restoreStateER11QDataStreamRK5QListIP8QToolBarEhbb
   fun:_ZN22QMainWindowLayoutState12restoreStateER11QDataStreamRKS_
   fun:_ZN17QMainWindowLayout12restoreStateER11QDataStream
   fun:_ZN11QMainWindow12restoreStateERK10QByteArrayi
   fun:_ZN3gui6window21size_restoring_windowI11QMainWindowE4showEv
   fun:_ZN3gui12house_app_qt5startEv
   fun:_ZN17app_functionality8house_qt3runEv
   fun:_Z7do_mainRiPPc
   fun:main
}
{
   <insert_a_suppression_name_here>
   Memcheck:Leak
   fun:_Znwj
   fun:_ZN25QPersistentModelIndexData6createERK11QModelIndex
   fun:_ZN21QPersistentModelIndexC1ERK11QModelIndex
   fun:_ZN9QTreeView6expandERK11QModelIndex
   fun:_ZN9QTreeView11setExpandedERK11QModelIndexb
   fun:_ZN11QTreeWidget15setItemExpandedEPK15QTreeWidgetItemb
   fun:_ZN15QTreeWidgetItem11setExpandedEb
   fun:_ZN3gui4view8users_qt15_add_group_itemERNS1_12_parent_itemEi
   fun:_ZN3gui4view8users_qt32_reserve_place_for_item_in_groupEi
   fun:_ZN3gui4view8users_qt14_add_user_itemEPNS0_12user_item_qtEi
   fun:_ZN3gui4view8users_qt9_new_userERKN11chat_gaming4userEi
   fun:_ZN3gui4view8users_qt12_update_userERKN11chat_gaming4userEi
}
{
   <insert_a_suppression_name_here>
   Memcheck:Leak
   fun:_Znwj
   fun:_ZN5QListI8QVariantE6appendERKS0_
   fun:_ZN15QTreeWidgetItem7setDataEiiRK8QVariant
   fun:_ZN15QTreeWidgetItem7setTextEiRK7QString
   fun:_ZN3gui4view12user_item_qt16_resolve_user_idEv
   fun:_ZN3gui4view12user_item_qt18resolve_user_stateEv
   fun:_ZN3gui4view8users_qt9_new_userERKN11chat_gaming4userEi
   fun:_ZN3gui4view8users_qt12_update_userERKN11chat_gaming4userEi
   fun:_ZN3gui4view8users_qt12_update_userERKN11chat_gaming8user_keyEi
   fun:_ZN3gui4view8users_qt14handle_messageEP7message
   fun:_ZN3gui6window8house_qt14handle_messageEP7message
   fun:_ZN3gui12house_app_qt17_handle_messengerEv
}
{
   <insert_a_suppression_name_here>
   Memcheck:Leak
   fun:malloc
   fun:_Z7qMallocj
   fun:_ZN7QString17fromLatin1_helperEPKci
   fun:_ZN7QString16fromAscii_helperEPKci
   fun:_ZN7QStringC1EPKc
   fun:_ZN3gui6window8house_qt16_create_toolbarsEv
   fun:_ZN3gui6window8house_qtC1Ev
   fun:_ZN3gui12house_app_qt5startEv
   fun:_ZN17app_functionality8house_qt3runEv
   fun:_Z7do_mainRiPPc
   fun:main
}
{
   <insert_a_suppression_name_here>
   Memcheck:Leak
   fun:malloc
   fun:_Z7qMallocj
   fun:_ZN11QVectorData8allocateEii
   fun:_ZN7QVectorIN18QHeaderViewPrivate11SectionSpanEE7reallocEii
   fun:_ZN7QVectorIN18QHeaderViewPrivate11SectionSpanEE6appendERKS1_
   fun:_ZN18QHeaderViewPrivate17createSectionSpanEiiiN11QHeaderView10ResizeModeE
   fun:_ZN11QHeaderView18initializeSectionsEii
   fun:_ZN11QHeaderView18initializeSectionsEv
   fun:_ZN11QHeaderView5resetEv
   fun:_ZN17QAbstractItemView8setModelEP18QAbstractItemModel
   fun:_ZN11QHeaderView8setModelEP18QAbstractItemModel
   fun:_ZN9QTreeView8setModelEP18QAbstractItemModel
}
{
   <insert_a_suppression_name_here>
   Memcheck:Leak
   fun:malloc
   fun:_Z7qMallocj
   fun:_ZN7QString17fromLatin1_helperEPKci
   fun:_ZN7QString16fromAscii_helperEPKci
   fun:_ZN7QStringC1EPKc
   fun:_ZN3gui4view8users_qt15_create_actionsEv
   fun:_ZN3gui4view8users_qtC1EP7QWidgetRKSs
   fun:_ZN3gui6window8house_qt15_create_widgetsEv
   fun:_ZN3gui6window8house_qtC1Ev
   fun:_ZN3gui12house_app_qt5startEv
   fun:_ZN17app_functionality8house_qt3runEv
   fun:_Z7do_mainRiPPc
}
{
   <insert_a_suppression_name_here>
   Memcheck:Leak
   fun:malloc
   fun:_Z7qMallocj
   fun:_ZN7QString17fromLatin1_helperEPKci
   fun:_ZN7QString16fromAscii_helperEPKci
   fun:_ZN7QStringC1EPKc
   fun:_ZN3gui4view8rooms_qt14_create_headerEv
   fun:_ZN3gui4view8rooms_qtC1EP7QWidget
   fun:_ZN3gui6window8house_qt15_create_widgetsEv
   fun:_ZN3gui6window8house_qtC1Ev
   fun:_ZN3gui12house_app_qt5startEv
   fun:_ZN17app_functionality8house_qt3runEv
   fun:_Z7do_mainRiPPc
}
{
   <insert_a_suppression_name_here>
   Memcheck:Leak
   fun:malloc
   fun:_Z7qMallocj
   fun:_ZN7QString17fromLatin1_helperEPKci
   fun:_ZN7QString16fromAscii_helperEPKci
   fun:_ZN7QStringC1EPKc
   fun:_ZN3gui4view8rooms_qt14_create_headerEv
   fun:_ZN3gui4view8rooms_qtC1EP7QWidget
   fun:_ZN3gui6window8house_qt15_create_widgetsEv
   fun:_ZN3gui6window8house_qtC1Ev
   fun:_ZN3gui12house_app_qt5startEv
   fun:_ZN17app_functionality8house_qt3runEv
   fun:_Z7do_mainRiPPc
}
{
   <insert_a_suppression_name_here>
   Memcheck:Leak
   fun:malloc
   fun:_Z7qMallocj
   fun:_ZN9QHashData12allocateNodeEi
   fun:_ZN25QPersistentModelIndexData6createERK11QModelIndex
   fun:_ZN21QPersistentModelIndexC1ERK11QModelIndex
   fun:_ZN9QTreeView6expandERK11QModelIndex
   fun:_ZN9QTreeView11setExpandedERK11QModelIndexb
   fun:_ZN11QTreeWidget15setItemExpandedEPK15QTreeWidgetItemb
   fun:_ZN15QTreeWidgetItem11setExpandedEb
   fun:_ZN3gui4view8users_qt15_add_group_itemERNS1_12_parent_itemEi
   fun:_ZN3gui4view8users_qt32_reserve_place_for_item_in_groupEi
   fun:_ZN3gui4view8users_qt14_add_user_itemEPNS0_12user_item_qtEi
}
{
   <insert_a_suppression_name_here>
   Memcheck:Leak
   fun:malloc
   fun:_Z7qMallocj
   fun:_ZN7QString17fromLatin1_helperEPKci
   fun:_ZN7QString16fromAscii_helperEPKci
   fun:_ZN7QStringC1EPKc
   fun:_ZN3gui6window8house_qt15_create_actionsEv
   fun:_ZN3gui6window8house_qtC1Ev
   fun:_ZN3gui12house_app_qt5startEv
   fun:_ZN17app_functionality8house_qt3runEv
   fun:_Z7do_mainRiPPc
   fun:main
}
{
   <insert_a_suppression_name_here>
   Memcheck:Leak
   fun:malloc
   fun:_Z7qMallocj
   fun:_ZN7QString17fromLatin1_helperEPKci
   fun:_ZN7QString16fromAscii_helperEPKci
   fun:_ZN7QStringC1EPKc
   fun:_ZN3gui4view8rooms_qt14_create_headerEv
   fun:_ZN3gui4view8rooms_qtC1EP7QWidget
   fun:_ZN3gui6window8house_qt15_create_widgetsEv
   fun:_ZN3gui6window8house_qtC1Ev
   fun:_ZN3gui12house_app_qt5startEv
   fun:_ZN17app_functionality8house_qt3runEv
   fun:_Z7do_mainRiPPc
}
{
   <insert_a_suppression_name_here>
   Memcheck:Leak
   fun:_Znwj
   fun:_ZNSs4_Rep9_S_createEjjRKSaIcE
   fun:_ZNSs4_Rep8_M_cloneERKSaIcEj
   fun:_ZNSs7reserveEj
   fun:_ZNSs6appendEjc
   fun:_ZNSs6resizeEjc
   fun:_ZN5boost7archive18text_iarchive_implINS0_13text_iarchiveEE4loadERSs
   fun:_ZN5boost7archive11load_access14load_primitiveINS0_13text_iarchiveESsEEvRT_RT0_
   fun:_ZN5boost7archive6detail21load_non_pointer_typeINS0_13text_iarchiveESsE14load_primitive6invokeERS3_RSs
   fun:_ZN5boost7archive6detail21load_non_pointer_typeINS0_13text_iarchiveESsE6invokeERS3_RSs
   fun:_ZN5boost7archive4loadINS0_13text_iarchiveESsEEvRT_RT0_
   fun:_ZN5boost7archive19basic_text_iarchiveINS0_13text_iarchiveEE13load_overrideISsEEvRT_i
}
{
   <insert_a_suppression_name_here>
   Memcheck:Leak
   fun:_Znwj
   fun:_ZNSs4_Rep9_S_createEjjRKSaIcE
   obj:/usr/lib/libstdc++.so.6.0.13
   fun:_ZNSsC1IPcEET_S1_RKSaIcE
   fun:_ZNKSt19basic_ostringstreamIcSt11char_traitsIcESaIcEE3strEv
   fun:_ZN11chat_gaming4user11generate_idEv
   fun:_ZN3gui12house_app_qt5startEv
   fun:_ZN17app_functionality8house_qt3runEv
   fun:_Z7do_mainRiPPc
   fun:main
}
{
   <insert_a_suppression_name_here>
   Memcheck:Leak
   fun:malloc
   fun:_Z7qMallocj
   fun:_ZN11QVectorData8allocateEii
   fun:_ZN7QVectorIN18QTextFormatPrivate8PropertyEE7reallocEii
   fun:_ZN7QVectorIN18QTextFormatPrivate8PropertyEE6appendERKS1_
   fun:_ZN11QTextFormat11setPropertyEiRK8QVariant
   fun:_ZN11QTextFormat13setForegroundERK6QBrush
   fun:_ZN3gui4view7chat_qtC1EP7QWidgetRKSs
   fun:_ZN3gui6window8house_qt15_create_widgetsEv
   fun:_ZN3gui6window8house_qtC1Ev
   fun:_ZN3gui12house_app_qt5startEv
   fun:_ZN17app_functionality8house_qt3runEv
}
{
   <insert_a_suppression_name_here>
   Memcheck:Leak
   fun:malloc
   fun:_Z7qMallocj
   fun:_ZN11QVectorData8allocateEii
   fun:_ZN7QVectorIN18QTextFormatPrivate8PropertyEE7reallocEii
   fun:_ZN7QVectorIN18QTextFormatPrivate8PropertyEE6appendERKS1_
   fun:_ZN11QTextFormat11setPropertyEiRK8QVariant
   fun:_ZN11QTextFormat13setForegroundERK6QBrush
   fun:_ZN3gui4view7chat_qtC1EP7QWidgetRKSs
   fun:_ZN3gui6window8house_qt15_create_widgetsEv
   fun:_ZN3gui6window8house_qtC1Ev
   fun:_ZN3gui12house_app_qt5startEv
   fun:_ZN17app_functionality8house_qt3runEv
}
{
   <insert_a_suppression_name_here>
   Memcheck:Leak
   fun:malloc
   fun:_Z7qMallocj
   fun:_ZN7QString17fromLatin1_helperEPKci
   fun:_ZN7QString16fromAscii_helperEPKci
   fun:_ZN7QStringC1EPKc
   fun:_ZN3gui6window8house_qt15_create_actionsEv
   fun:_ZN3gui6window8house_qtC1Ev
   fun:_ZN3gui12house_app_qt5startEv
   fun:_ZN17app_functionality8house_qt3runEv
   fun:_Z7do_mainRiPPc
   fun:main
}
{
   <insert_a_suppression_name_here>
   Memcheck:Leak
   fun:_Znwj
   fun:_ZN18QMetaObjectPrivate7connectEPK7QObjectiS2_iiPi
   fun:_ZN7QObject7connectEPKS_PKcS1_S3_N2Qt14ConnectionTypeE
   fun:_ZN12QActionGroup9addActionEP7QAction
   fun:_ZN3gui6window8house_qt15_create_actionsEv
   fun:_ZN3gui6window8house_qtC1Ev
   fun:_ZN3gui12house_app_qt5startEv
   fun:_ZN17app_functionality8house_qt3runEv
   fun:_Z7do_mainRiPPc
   fun:main
}
{
   <insert_a_suppression_name_here>
   Memcheck:Leak
   fun:_Znwj
   fun:_ZN18QMetaObjectPrivate7connectEPK7QObjectiS2_iiPi
   fun:_ZN7QObject7connectEPKS_PKcS1_S3_N2Qt14ConnectionTypeE
   fun:_ZN12QActionGroup9addActionEP7QAction
   fun:_ZN3gui6window8house_qt15_create_actionsEv
   fun:_ZN3gui6window8house_qtC1Ev
   fun:_ZN3gui12house_app_qt5startEv
   fun:_ZN17app_functionality8house_qt3runEv
   fun:_Z7do_mainRiPPc
   fun:main
}
{
   <insert_a_suppression_name_here>
   Memcheck:Leak
   fun:_Znwj
   fun:_ZN18QMetaObjectPrivate7connectEPK7QObjectiS2_iiPi
   fun:_ZN7QObject7connectEPKS_PKcS1_S3_N2Qt14ConnectionTypeE
   fun:_ZN12QActionGroup9addActionEP7QAction
   fun:_ZN3gui6window8house_qt15_create_actionsEv
   fun:_ZN3gui6window8house_qtC1Ev
   fun:_ZN3gui12house_app_qt5startEv
   fun:_ZN17app_functionality8house_qt3runEv
   fun:_Z7do_mainRiPPc
   fun:main
}
{
   <insert_a_suppression_name_here>
   Memcheck:Leak
   fun:_Znwj
   fun:_ZN18QMetaObjectPrivate7connectEPK7QObjectiS2_iiPi
   fun:_ZN7QObject7connectEPKS_PKcS1_S3_N2Qt14ConnectionTypeE
   fun:_ZN12QActionGroup9addActionEP7QAction
   fun:_ZN3gui6window8house_qt15_create_actionsEv
   fun:_ZN3gui6window8house_qtC1Ev
   fun:_ZN3gui12house_app_qt5startEv
   fun:_ZN17app_functionality8house_qt3runEv
   fun:_Z7do_mainRiPPc
   fun:main
}
{
   <insert_a_suppression_name_here>
   Memcheck:Leak
   fun:_Znwj
   fun:_ZN18QMetaObjectPrivate7connectEPK7QObjectiS2_iiPi
   fun:_ZN7QObject7connectEPKS_PKcS1_S3_N2Qt14ConnectionTypeE
   fun:_ZN12QActionGroup9addActionEP7QAction
   fun:_ZN3gui6window8house_qt15_create_actionsEv
   fun:_ZN3gui6window8house_qtC1Ev
   fun:_ZN3gui12house_app_qt5startEv
   fun:_ZN17app_functionality8house_qt3runEv
   fun:_Z7do_mainRiPPc
   fun:main
}
{
   <insert_a_suppression_name_here>
   Memcheck:Leak
   fun:_Znwj
   fun:_ZN18QMetaObjectPrivate7connectEPK7QObjectiS2_iiPi
   fun:_ZN7QObject7connectEPKS_PKcS1_S3_N2Qt14ConnectionTypeE
   fun:_ZN12QActionGroup9addActionEP7QAction
   fun:_ZN3gui6window8house_qt15_create_actionsEv
   fun:_ZN3gui6window8house_qtC1Ev
   fun:_ZN3gui12house_app_qt5startEv
   fun:_ZN17app_functionality8house_qt3runEv
   fun:_Z7do_mainRiPPc
   fun:main
}
{
   <insert_a_suppression_name_here>
   Memcheck:Leak
   fun:_Znwj
   fun:_ZN18QMetaObjectPrivate7connectEPK7QObjectiS2_iiPi
   fun:_ZN7QObject7connectEPKS_PKcS1_S3_N2Qt14ConnectionTypeE
   fun:_ZN12QActionGroup9addActionEP7QAction
   fun:_ZN3gui6window8house_qt15_create_actionsEv
   fun:_ZN3gui6window8house_qtC1Ev
   fun:_ZN3gui12house_app_qt5startEv
   fun:_ZN17app_functionality8house_qt3runEv
   fun:_Z7do_mainRiPPc
   fun:main
}
{
   <insert_a_suppression_name_here>
   Memcheck:Leak
   fun:_Znwj
   fun:_ZN18QMetaObjectPrivate7connectEPK7QObjectiS2_iiPi
   fun:_ZN7QObject7connectEPKS_PKcS1_S3_N2Qt14ConnectionTypeE
   fun:_ZN12QActionGroup9addActionEP7QAction
   fun:_ZN3gui6window8house_qt15_create_actionsEv
   fun:_ZN3gui6window8house_qtC1Ev
   fun:_ZN3gui12house_app_qt5startEv
   fun:_ZN17app_functionality8house_qt3runEv
   fun:_Z7do_mainRiPPc
   fun:main
}
{
   <insert_a_suppression_name_here>
   Memcheck:Leak
   fun:_Znwj
   fun:_ZN18QMetaObjectPrivate7connectEPK7QObjectiS2_iiPi
   fun:_ZN7QObject7connectEPKS_PKcS1_S3_N2Qt14ConnectionTypeE
   fun:_ZN12QActionGroup9addActionEP7QAction
   fun:_ZN3gui6window8house_qt15_create_actionsEv
   fun:_ZN3gui6window8house_qtC1Ev
   fun:_ZN3gui12house_app_qt5startEv
   fun:_ZN17app_functionality8house_qt3runEv
   fun:_Z7do_mainRiPPc
   fun:main
}
{
   <insert_a_suppression_name_here>
   Memcheck:Leak
   fun:_Znwj
   fun:_ZN18QMetaObjectPrivate7connectEPK7QObjectiS2_iiPi
   fun:_ZN7QObject7connectEPKS_PKcS1_S3_N2Qt14ConnectionTypeE
   fun:_ZN12QActionGroup9addActionEP7QAction
   fun:_ZN3gui6window8house_qt15_create_actionsEv
   fun:_ZN3gui6window8house_qtC1Ev
   fun:_ZN3gui12house_app_qt5startEv
   fun:_ZN17app_functionality8house_qt3runEv
   fun:_Z7do_mainRiPPc
   fun:main
}
{
   <insert_a_suppression_name_here>
   Memcheck:Leak
   fun:_Znwj
   fun:_ZN18QMetaObjectPrivate7connectEPK7QObjectiS2_iiPi
   fun:_ZN7QObject7connectEPKS_PKcS1_S3_N2Qt14ConnectionTypeE
   fun:_ZN12QActionGroup9addActionEP7QAction
   fun:_ZN3gui6window8house_qt15_create_actionsEv
   fun:_ZN3gui6window8house_qtC1Ev
   fun:_ZN3gui12house_app_qt5startEv
   fun:_ZN17app_functionality8house_qt3runEv
   fun:_Z7do_mainRiPPc
   fun:main
}
{
   <insert_a_suppression_name_here>
   Memcheck:Leak
   fun:_Znwj
   fun:_ZN18QMetaObjectPrivate7connectEPK7QObjectiS2_iiPi
   fun:_ZN7QObject7connectEPKS_PKcS1_S3_N2Qt14ConnectionTypeE
   fun:_ZN12QActionGroup9addActionEP7QAction
   fun:_ZN3gui6window8house_qt15_create_actionsEv
   fun:_ZN3gui6window8house_qtC1Ev
   fun:_ZN3gui12house_app_qt5startEv
   fun:_ZN17app_functionality8house_qt3runEv
   fun:_Z7do_mainRiPPc
   fun:main
}
{
   <insert_a_suppression_name_here>
   Memcheck:Leak
   fun:malloc
   fun:_Z7qMallocj
   fun:_ZN7QString17fromLatin1_helperEPKci
   fun:_ZN7QString16fromAscii_helperEPKci
   fun:_ZN7QStringC1EPKc
   fun:_ZN3gui6window8house_qt15_create_actionsEv
   fun:_ZN3gui6window8house_qtC1Ev
   fun:_ZN3gui12house_app_qt5startEv
   fun:_ZN17app_functionality8house_qt3runEv
   fun:_Z7do_mainRiPPc
   fun:main
}
{
   <insert_a_suppression_name_here>
   Memcheck:Leak
   fun:malloc
   fun:_Z7qMallocj
   fun:_ZN9QListData11detach_growEPii
   fun:_ZN5QListIP7QObjectE18detach_helper_growEii
   fun:_ZN5QListIP7QObjectE6appendERKS1_
   fun:_ZN14QObjectPrivate16setParent_helperEP7QObject
   fun:_ZN7QObject9setParentEPS_
   fun:_ZN7QObjectC2ER14QObjectPrivatePS_
   fun:_ZN7QActionC1EP7QObject
   fun:_ZN12QMenuPrivate4initEv
   fun:_ZN5QMenuC1ERK7QStringP7QWidget
   fun:_ZN3gui6window8house_qt13_create_menusEv
}
{
   <insert_a_suppression_name_here>
   Memcheck:Leak
   fun:malloc
   fun:_Z7qMallocj
   fun:_ZN9QListData11detach_growEPii
   fun:_ZN5QListIP7QActionE18detach_helper_growEii
   fun:_ZN7QWidget12insertActionEP7QActionS1_
   fun:_ZN7QWidget9addActionEP7QAction
   fun:_ZN3gui6window8house_qt13_create_menusEv
   fun:_ZN3gui6window8house_qtC1Ev
   fun:_ZN3gui12house_app_qt5startEv
   fun:_ZN17app_functionality8house_qt3runEv
   fun:_Z7do_mainRiPPc
   fun:main
}
{
   <insert_a_suppression_name_here>
   Memcheck:Leak
   fun:malloc
   fun:_Z7qMallocj
   fun:_ZN9QListData11detach_growEPii
   fun:_ZN5QListIP7QWidgetE18detach_helper_growEii
   fun:_ZN5QListIP7QWidgetE6appendERKS1_
   fun:_ZN7QWidget12insertActionEP7QActionS1_
   fun:_ZN7QWidget9addActionEP7QAction
   fun:_ZN3gui6window8house_qt13_create_menusEv
   fun:_ZN3gui6window8house_qtC1Ev
   fun:_ZN3gui12house_app_qt5startEv
   fun:_ZN17app_functionality8house_qt3runEv
   fun:_Z7do_mainRiPPc
}
{
   <insert_a_suppression_name_here>
   Memcheck:Leak
   fun:_Znwj
   fun:_ZN18QMetaObjectPrivate7connectEPK7QObjectiS2_iiPi
   fun:_ZN7QObject7connectEPKS_PKcS1_S3_N2Qt14ConnectionTypeE
   fun:_ZN5QMenu11actionEventEP12QActionEvent
   fun:_ZN7QWidget5eventEP6QEvent
   fun:_ZN5QMenu5eventEP6QEvent
   fun:_ZN19QApplicationPrivate13notify_helperEP7QObjectP6QEvent
   fun:_ZN12QApplication6notifyEP7QObjectP6QEvent
   fun:_ZN16QCoreApplication14notifyInternalEP7QObjectP6QEvent
   fun:_ZN7QWidget12insertActionEP7QActionS1_
   fun:_ZN7QWidget9addActionEP7QAction
   fun:_ZN3gui6window8house_qt13_create_menusEv
}
{
   <insert_a_suppression_name_here>
   Memcheck:Leak
   fun:_Znwj
   fun:_ZN18QMetaObjectPrivate7connectEPK7QObjectiS2_iiPi
   fun:_ZN7QObject7connectEPKS_PKcS1_S3_N2Qt14ConnectionTypeE
   fun:_ZN5QMenu11actionEventEP12QActionEvent
   fun:_ZN7QWidget5eventEP6QEvent
   fun:_ZN5QMenu5eventEP6QEvent
   fun:_ZN19QApplicationPrivate13notify_helperEP7QObjectP6QEvent
   fun:_ZN12QApplication6notifyEP7QObjectP6QEvent
   fun:_ZN16QCoreApplication14notifyInternalEP7QObjectP6QEvent
   fun:_ZN7QWidget12insertActionEP7QActionS1_
   fun:_ZN7QWidget9addActionEP7QAction
   fun:_ZN3gui6window8house_qt13_create_menusEv
}
{
   <insert_a_suppression_name_here>
   Memcheck:Leak
   fun:malloc
   fun:_Z7qMallocj
   fun:_ZN9QListData11detach_growEPii
   fun:_ZN5QListIP7QObjectE18detach_helper_growEii
   fun:_ZN5QListIP7QObjectE6appendERKS1_
   fun:_ZN14QObjectPrivate16setParent_helperEP7QObject
   fun:_ZN7QObject9setParentEPS_
   fun:_ZN7QObjectC2ER14QObjectPrivatePS_
   fun:_ZN7QActionC1EP7QObject
   fun:_ZN12QMenuPrivate4initEv
   fun:_ZN5QMenuC1ERK7QStringP7QWidget
   fun:_ZN3gui6window8house_qt13_create_menusEv
}
{
   <insert_a_suppression_name_here>
   Memcheck:Leak
   fun:malloc
   fun:_Z7qMallocj
   fun:_ZN9QListData11detach_growEPii
   fun:_ZN5QListIP7QWidgetE18detach_helper_growEii
   fun:_ZN5QListIP7QWidgetE6appendERKS1_
   fun:_ZN7QWidget12insertActionEP7QActionS1_
   fun:_ZN7QWidget9addActionEP7QAction
   fun:_ZN3gui6window8house_qt13_create_menusEv
   fun:_ZN3gui6window8house_qtC1Ev
   fun:_ZN3gui12house_app_qt5startEv
   fun:_ZN17app_functionality8house_qt3runEv
   fun:_Z7do_mainRiPPc
}
{
   <insert_a_suppression_name_here>
   Memcheck:Leak
   fun:_Znwj
   fun:_ZN18QMetaObjectPrivate7connectEPK7QObjectiS2_iiPi
   fun:_ZN7QObject7connectEPKS_PKcS1_S3_N2Qt14ConnectionTypeE
   fun:_ZN5QMenu11actionEventEP12QActionEvent
   fun:_ZN7QWidget5eventEP6QEvent
   fun:_ZN5QMenu5eventEP6QEvent
   fun:_ZN19QApplicationPrivate13notify_helperEP7QObjectP6QEvent
   fun:_ZN12QApplication6notifyEP7QObjectP6QEvent
   fun:_ZN16QCoreApplication14notifyInternalEP7QObjectP6QEvent
   fun:_ZN7QWidget12insertActionEP7QActionS1_
   fun:_ZN7QWidget9addActionEP7QAction
   fun:_ZN3gui6window8house_qt13_create_menusEv
}
{
   <insert_a_suppression_name_here>
   Memcheck:Leak
   fun:_Znwj
   fun:_ZN18QMetaObjectPrivate7connectEPK7QObjectiS2_iiPi
   fun:_ZN7QObject7connectEPKS_PKcS1_S3_N2Qt14ConnectionTypeE
   fun:_ZN5QMenu11actionEventEP12QActionEvent
   fun:_ZN7QWidget5eventEP6QEvent
   fun:_ZN5QMenu5eventEP6QEvent
   fun:_ZN19QApplicationPrivate13notify_helperEP7QObjectP6QEvent
   fun:_ZN12QApplication6notifyEP7QObjectP6QEvent
   fun:_ZN16QCoreApplication14notifyInternalEP7QObjectP6QEvent
   fun:_ZN7QWidget12insertActionEP7QActionS1_
   fun:_ZN7QWidget9addActionEP7QAction
   fun:_ZN3gui6window8house_qt13_create_menusEv
}
{
   <insert_a_suppression_name_here>
   Memcheck:Leak
   fun:malloc
   fun:_Z7qMallocj
   fun:_ZN9QListData11detach_growEPii
   fun:_ZN5QListIP7QWidgetE18detach_helper_growEii
   fun:_ZN5QListIP7QWidgetE6appendERKS1_
   fun:_ZN7QWidget12insertActionEP7QActionS1_
   fun:_ZN7QWidget9addActionEP7QAction
   fun:_ZN3gui6window8house_qt13_create_menusEv
   fun:_ZN3gui6window8house_qtC1Ev
   fun:_ZN3gui12house_app_qt5startEv
   fun:_ZN17app_functionality8house_qt3runEv
   fun:_Z7do_mainRiPPc
}
{
   <insert_a_suppression_name_here>
   Memcheck:Leak
   fun:_Znwj
   fun:_ZN18QMetaObjectPrivate7connectEPK7QObjectiS2_iiPi
   fun:_ZN7QObject7connectEPKS_PKcS1_S3_N2Qt14ConnectionTypeE
   fun:_ZN5QMenu11actionEventEP12QActionEvent
   fun:_ZN7QWidget5eventEP6QEvent
   fun:_ZN5QMenu5eventEP6QEvent
   fun:_ZN19QApplicationPrivate13notify_helperEP7QObjectP6QEvent
   fun:_ZN12QApplication6notifyEP7QObjectP6QEvent
   fun:_ZN16QCoreApplication14notifyInternalEP7QObjectP6QEvent
   fun:_ZN7QWidget12insertActionEP7QActionS1_
   fun:_ZN7QWidget9addActionEP7QAction
   fun:_ZN3gui6window8house_qt13_create_menusEv
}
{
   <insert_a_suppression_name_here>
   Memcheck:Leak
   fun:_Znwj
   fun:_ZN18QMetaObjectPrivate7connectEPK7QObjectiS2_iiPi
   fun:_ZN7QObject7connectEPKS_PKcS1_S3_N2Qt14ConnectionTypeE
   fun:_ZN5QMenu11actionEventEP12QActionEvent
   fun:_ZN7QWidget5eventEP6QEvent
   fun:_ZN5QMenu5eventEP6QEvent
   fun:_ZN19QApplicationPrivate13notify_helperEP7QObjectP6QEvent
   fun:_ZN12QApplication6notifyEP7QObjectP6QEvent
   fun:_ZN16QCoreApplication14notifyInternalEP7QObjectP6QEvent
   fun:_ZN7QWidget12insertActionEP7QActionS1_
   fun:_ZN7QWidget9addActionEP7QAction
   fun:_ZN3gui6window8house_qt13_create_menusEv
}
{
   <insert_a_suppression_name_here>
   Memcheck:Leak
   fun:malloc
   fun:_Z7qMallocj
   fun:_ZN9QListData11detach_growEPii
   fun:_ZN5QListIP7QObjectE18detach_helper_growEii
   fun:_ZN5QListIP7QObjectE6appendERKS1_
   fun:_ZN14QObjectPrivate16setParent_helperEP7QObject
   fun:_ZN7QObject9setParentEPS_
   fun:_ZN7QObjectC2ER14QObjectPrivatePS_
   fun:_ZN7QActionC1EP7QObject
   fun:_ZN12QMenuPrivate4initEv
   fun:_ZN5QMenuC1ERK7QStringP7QWidget
   fun:_ZN3gui6window8house_qt13_create_menusEv
}
{
   <insert_a_suppression_name_here>
   Memcheck:Leak
   fun:malloc
   fun:_Z7qMallocj
   fun:_ZN9QListData11detach_growEPii
   fun:_ZN5QListIP7QWidgetE18detach_helper_growEii
   fun:_ZN5QListIP7QWidgetE6appendERKS1_
   fun:_ZN7QWidget12insertActionEP7QActionS1_
   fun:_ZN7QWidget9addActionEP7QAction
   fun:_ZN3gui6window8house_qt13_create_menusEv
   fun:_ZN3gui6window8house_qtC1Ev
   fun:_ZN3gui12house_app_qt5startEv
   fun:_ZN17app_functionality8house_qt3runEv
   fun:_Z7do_mainRiPPc
}
{
   <insert_a_suppression_name_here>
   Memcheck:Leak
   fun:_Znwj
   fun:_ZN18QMetaObjectPrivate7connectEPK7QObjectiS2_iiPi
   fun:_ZN7QObject7connectEPKS_PKcS1_S3_N2Qt14ConnectionTypeE
   fun:_ZN5QMenu11actionEventEP12QActionEvent
   fun:_ZN7QWidget5eventEP6QEvent
   fun:_ZN5QMenu5eventEP6QEvent
   fun:_ZN19QApplicationPrivate13notify_helperEP7QObjectP6QEvent
   fun:_ZN12QApplication6notifyEP7QObjectP6QEvent
   fun:_ZN16QCoreApplication14notifyInternalEP7QObjectP6QEvent
   fun:_ZN7QWidget12insertActionEP7QActionS1_
   fun:_ZN7QWidget9addActionEP7QAction
   fun:_ZN3gui6window8house_qt13_create_menusEv
}
{
   <insert_a_suppression_name_here>
   Memcheck:Leak
   fun:_Znwj
   fun:_ZN18QMetaObjectPrivate7connectEPK7QObjectiS2_iiPi
   fun:_ZN7QObject7connectEPKS_PKcS1_S3_N2Qt14ConnectionTypeE
   fun:_ZN5QMenu11actionEventEP12QActionEvent
   fun:_ZN7QWidget5eventEP6QEvent
   fun:_ZN5QMenu5eventEP6QEvent
   fun:_ZN19QApplicationPrivate13notify_helperEP7QObjectP6QEvent
   fun:_ZN12QApplication6notifyEP7QObjectP6QEvent
   fun:_ZN16QCoreApplication14notifyInternalEP7QObjectP6QEvent
   fun:_ZN7QWidget12insertActionEP7QActionS1_
   fun:_ZN7QWidget9addActionEP7QAction
   fun:_ZN3gui6window8house_qt13_create_menusEv
}
{
   <insert_a_suppression_name_here>
   Memcheck:Leak
   fun:malloc
   fun:_Z7qMallocj
   fun:_ZN9QListData11detach_growEPii
   fun:_ZN5QListIP7QWidgetE18detach_helper_growEii
   fun:_ZN5QListIP7QWidgetE6appendERKS1_
   fun:_ZN7QWidget12insertActionEP7QActionS1_
   fun:_ZN7QWidget9addActionEP7QAction
   fun:_ZN3gui6window8house_qt13_create_menusEv
   fun:_ZN3gui6window8house_qtC1Ev
   fun:_ZN3gui12house_app_qt5startEv
   fun:_ZN17app_functionality8house_qt3runEv
   fun:_Z7do_mainRiPPc
}
{
   <insert_a_suppression_name_here>
   Memcheck:Leak
   fun:_Znwj
   fun:_ZN18QMetaObjectPrivate7connectEPK7QObjectiS2_iiPi
   fun:_ZN7QObject7connectEPKS_PKcS1_S3_N2Qt14ConnectionTypeE
   fun:_ZN5QMenu11actionEventEP12QActionEvent
   fun:_ZN7QWidget5eventEP6QEvent
   fun:_ZN5QMenu5eventEP6QEvent
   fun:_ZN19QApplicationPrivate13notify_helperEP7QObjectP6QEvent
   fun:_ZN12QApplication6notifyEP7QObjectP6QEvent
   fun:_ZN16QCoreApplication14notifyInternalEP7QObjectP6QEvent
   fun:_ZN7QWidget12insertActionEP7QActionS1_
   fun:_ZN7QWidget9addActionEP7QAction
   fun:_ZN3gui6window8house_qt13_create_menusEv
}
{
   <insert_a_suppression_name_here>
   Memcheck:Leak
   fun:_Znwj
   fun:_ZN18QMetaObjectPrivate7connectEPK7QObjectiS2_iiPi
   fun:_ZN7QObject7connectEPKS_PKcS1_S3_N2Qt14ConnectionTypeE
   fun:_ZN5QMenu11actionEventEP12QActionEvent
   fun:_ZN7QWidget5eventEP6QEvent
   fun:_ZN5QMenu5eventEP6QEvent
   fun:_ZN19QApplicationPrivate13notify_helperEP7QObjectP6QEvent
   fun:_ZN12QApplication6notifyEP7QObjectP6QEvent
   fun:_ZN16QCoreApplication14notifyInternalEP7QObjectP6QEvent
   fun:_ZN7QWidget12insertActionEP7QActionS1_
   fun:_ZN7QWidget9addActionEP7QAction
   fun:_ZN3gui6window8house_qt13_create_menusEv
}
{
   <insert_a_suppression_name_here>
   Memcheck:Leak
   fun:malloc
   fun:_Z7qMallocj
   fun:_ZN9QListData11detach_growEPii
   fun:_ZN5QListIP7QWidgetE18detach_helper_growEii
   fun:_ZN5QListIP7QWidgetE6appendERKS1_
   fun:_ZN7QWidget12insertActionEP7QActionS1_
   fun:_ZN7QWidget9addActionEP7QAction
   fun:_ZN3gui6window8house_qt13_create_menusEv
   fun:_ZN3gui6window8house_qtC1Ev
   fun:_ZN3gui12house_app_qt5startEv
   fun:_ZN17app_functionality8house_qt3runEv
   fun:_Z7do_mainRiPPc
}
{
   <insert_a_suppression_name_here>
   Memcheck:Leak
   fun:_Znwj
   fun:_ZN18QMetaObjectPrivate7connectEPK7QObjectiS2_iiPi
   fun:_ZN7QObject7connectEPKS_PKcS1_S3_N2Qt14ConnectionTypeE
   fun:_ZN5QMenu11actionEventEP12QActionEvent
   fun:_ZN7QWidget5eventEP6QEvent
   fun:_ZN5QMenu5eventEP6QEvent
   fun:_ZN19QApplicationPrivate13notify_helperEP7QObjectP6QEvent
   fun:_ZN12QApplication6notifyEP7QObjectP6QEvent
   fun:_ZN16QCoreApplication14notifyInternalEP7QObjectP6QEvent
   fun:_ZN7QWidget12insertActionEP7QActionS1_
   fun:_ZN7QWidget9addActionEP7QAction
   fun:_ZN3gui6window8house_qt13_create_menusEv
}
{
   <insert_a_suppression_name_here>
   Memcheck:Leak
   fun:_Znwj
   fun:_ZN18QMetaObjectPrivate7connectEPK7QObjectiS2_iiPi
   fun:_ZN7QObject7connectEPKS_PKcS1_S3_N2Qt14ConnectionTypeE
   fun:_ZN5QMenu11actionEventEP12QActionEvent
   fun:_ZN7QWidget5eventEP6QEvent
   fun:_ZN5QMenu5eventEP6QEvent
   fun:_ZN19QApplicationPrivate13notify_helperEP7QObjectP6QEvent
   fun:_ZN12QApplication6notifyEP7QObjectP6QEvent
   fun:_ZN16QCoreApplication14notifyInternalEP7QObjectP6QEvent
   fun:_ZN7QWidget12insertActionEP7QActionS1_
   fun:_ZN7QWidget9addActionEP7QAction
   fun:_ZN3gui6window8house_qt13_create_menusEv
}
{
   <insert_a_suppression_name_here>
   Memcheck:Leak
   fun:malloc
   fun:_Z7qMallocj
   fun:_ZN9QListData11detach_growEPii
   fun:_ZN5QListIP7QWidgetE18detach_helper_growEii
   fun:_ZN5QListIP7QWidgetE6appendERKS1_
   fun:_ZN7QWidget12insertActionEP7QActionS1_
   fun:_ZN7QWidget9addActionEP7QAction
   fun:_ZN3gui6window8house_qt13_create_menusEv
   fun:_ZN3gui6window8house_qtC1Ev
   fun:_ZN3gui12house_app_qt5startEv
   fun:_ZN17app_functionality8house_qt3runEv
   fun:_Z7do_mainRiPPc
}
{
   <insert_a_suppression_name_here>
   Memcheck:Leak
   fun:_Znwj
   fun:_ZN18QMetaObjectPrivate7connectEPK7QObjectiS2_iiPi
   fun:_ZN7QObject7connectEPKS_PKcS1_S3_N2Qt14ConnectionTypeE
   fun:_ZN5QMenu11actionEventEP12QActionEvent
   fun:_ZN7QWidget5eventEP6QEvent
   fun:_ZN5QMenu5eventEP6QEvent
   fun:_ZN19QApplicationPrivate13notify_helperEP7QObjectP6QEvent
   fun:_ZN12QApplication6notifyEP7QObjectP6QEvent
   fun:_ZN16QCoreApplication14notifyInternalEP7QObjectP6QEvent
   fun:_ZN7QWidget12insertActionEP7QActionS1_
   fun:_ZN7QWidget9addActionEP7QAction
   fun:_ZN3gui6window8house_qt13_create_menusEv
}
{
   <insert_a_suppression_name_here>
   Memcheck:Leak
   fun:_Znwj
   fun:_ZN18QMetaObjectPrivate7connectEPK7QObjectiS2_iiPi
   fun:_ZN7QObject7connectEPKS_PKcS1_S3_N2Qt14ConnectionTypeE
   fun:_ZN5QMenu11actionEventEP12QActionEvent
   fun:_ZN7QWidget5eventEP6QEvent
   fun:_ZN5QMenu5eventEP6QEvent
   fun:_ZN19QApplicationPrivate13notify_helperEP7QObjectP6QEvent
   fun:_ZN12QApplication6notifyEP7QObjectP6QEvent
   fun:_ZN16QCoreApplication14notifyInternalEP7QObjectP6QEvent
   fun:_ZN7QWidget12insertActionEP7QActionS1_
   fun:_ZN7QWidget9addActionEP7QAction
   fun:_ZN3gui6window8house_qt13_create_menusEv
}
{
   <insert_a_suppression_name_here>
   Memcheck:Leak
   fun:malloc
   fun:_Z7qMallocj
   fun:_ZN9QListData11detach_growEPii
   fun:_ZN5QListIP7QWidgetE18detach_helper_growEii
   fun:_ZN5QListIP7QWidgetE6appendERKS1_
   fun:_ZN7QWidget12insertActionEP7QActionS1_
   fun:_ZN7QWidget9addActionEP7QAction
   fun:_ZN3gui6window8house_qt13_create_menusEv
   fun:_ZN3gui6window8house_qtC1Ev
   fun:_ZN3gui12house_app_qt5startEv
   fun:_ZN17app_functionality8house_qt3runEv
   fun:_Z7do_mainRiPPc
}
{
   <insert_a_suppression_name_here>
   Memcheck:Leak
   fun:_Znwj
   fun:_ZN18QMetaObjectPrivate7connectEPK7QObjectiS2_iiPi
   fun:_ZN7QObject7connectEPKS_PKcS1_S3_N2Qt14ConnectionTypeE
   fun:_ZN5QMenu11actionEventEP12QActionEvent
   fun:_ZN7QWidget5eventEP6QEvent
   fun:_ZN5QMenu5eventEP6QEvent
   fun:_ZN19QApplicationPrivate13notify_helperEP7QObjectP6QEvent
   fun:_ZN12QApplication6notifyEP7QObjectP6QEvent
   fun:_ZN16QCoreApplication14notifyInternalEP7QObjectP6QEvent
   fun:_ZN7QWidget12insertActionEP7QActionS1_
   fun:_ZN7QWidget9addActionEP7QAction
   fun:_ZN3gui6window8house_qt13_create_menusEv
}
{
   <insert_a_suppression_name_here>
   Memcheck:Leak
   fun:_Znwj
   fun:_ZN18QMetaObjectPrivate7connectEPK7QObjectiS2_iiPi
   fun:_ZN7QObject7connectEPKS_PKcS1_S3_N2Qt14ConnectionTypeE
   fun:_ZN5QMenu11actionEventEP12QActionEvent
   fun:_ZN7QWidget5eventEP6QEvent
   fun:_ZN5QMenu5eventEP6QEvent
   fun:_ZN19QApplicationPrivate13notify_helperEP7QObjectP6QEvent
   fun:_ZN12QApplication6notifyEP7QObjectP6QEvent
   fun:_ZN16QCoreApplication14notifyInternalEP7QObjectP6QEvent
   fun:_ZN7QWidget12insertActionEP7QActionS1_
   fun:_ZN7QWidget9addActionEP7QAction
   fun:_ZN3gui6window8house_qt13_create_menusEv
}
{
   <insert_a_suppression_name_here>
   Memcheck:Leak
   fun:_Znwj
   fun:_ZN18QMetaObjectPrivate7connectEPK7QObjectiS2_iiPi
   fun:_ZN7QObject7connectEPKS_PKcS1_S3_N2Qt14ConnectionTypeE
   fun:_ZN18QToolButtonPrivate4initEv
   fun:_ZN11QToolButtonC2EP7QWidget
   fun:_ZN17QToolBarExtensionC1EP7QWidget
   fun:_ZN14QToolBarLayoutC1EP7QWidget
   fun:_ZN15QToolBarPrivate4initEv
   fun:_ZN8QToolBarC1EP7QWidget
   fun:_ZN11QMainWindow10addToolBarERK7QString
   fun:_ZN3gui6window8house_qt16_create_toolbarsEv
   fun:_ZN3gui6window8house_qtC1Ev
}
{
   <insert_a_suppression_name_here>
   Memcheck:Leak
   fun:_Znwj
   fun:_ZN18QMetaObjectPrivate7connectEPK7QObjectiS2_iiPi
   fun:_ZN7QObject7connectEPKS_PKcS1_S3_N2Qt14ConnectionTypeE
   fun:_ZN14QToolBarLayoutC1EP7QWidget
   fun:_ZN15QToolBarPrivate4initEv
   fun:_ZN8QToolBarC1EP7QWidget
   fun:_ZN11QMainWindow10addToolBarERK7QString
   fun:_ZN3gui6window8house_qt16_create_toolbarsEv
   fun:_ZN3gui6window8house_qtC1Ev
   fun:_ZN3gui12house_app_qt5startEv
   fun:_ZN17app_functionality8house_qt3runEv
   fun:_Z7do_mainRiPPc
}
{
   <insert_a_suppression_name_here>
   Memcheck:Leak
   fun:_Znwj
   fun:_ZN18QMetaObjectPrivate7connectEPK7QObjectiS2_iiPi
   fun:_ZN7QObject7connectEPKS_PKcS1_S3_N2Qt14ConnectionTypeE
   fun:_ZN14QToolBarLayout15setUsePopupMenuEb
   fun:_ZN14QToolBarLayoutC1EP7QWidget
   fun:_ZN15QToolBarPrivate4initEv
   fun:_ZN8QToolBarC1EP7QWidget
   fun:_ZN11QMainWindow10addToolBarERK7QString
   fun:_ZN3gui6window8house_qt16_create_toolbarsEv
   fun:_ZN3gui6window8house_qtC1Ev
   fun:_ZN3gui12house_app_qt5startEv
   fun:_ZN17app_functionality8house_qt3runEv
}
{
   <insert_a_suppression_name_here>
   Memcheck:Leak
   fun:_Znwj
   fun:_ZN18QMetaObjectPrivate7connectEPK7QObjectiS2_iiPi
   fun:_ZN7QObject7connectEPKS_PKcS1_S3_N2Qt14ConnectionTypeE
   fun:_ZN11QMainWindow10addToolBarEN2Qt11ToolBarAreaEP8QToolBar
   fun:_ZN11QMainWindow10addToolBarEP8QToolBar
   fun:_ZN11QMainWindow10addToolBarERK7QString
   fun:_ZN3gui6window8house_qt16_create_toolbarsEv
   fun:_ZN3gui6window8house_qtC1Ev
   fun:_ZN3gui12house_app_qt5startEv
   fun:_ZN17app_functionality8house_qt3runEv
   fun:_Z7do_mainRiPPc
   fun:main
}
{
   <insert_a_suppression_name_here>
   Memcheck:Leak
   fun:_Znwj
   fun:_ZN18QMetaObjectPrivate7connectEPK7QObjectiS2_iiPi
   fun:_ZN7QObject7connectEPKS_PKcS1_S3_N2Qt14ConnectionTypeE
   fun:_ZN11QMainWindow10addToolBarEN2Qt11ToolBarAreaEP8QToolBar
   fun:_ZN11QMainWindow10addToolBarEP8QToolBar
   fun:_ZN11QMainWindow10addToolBarERK7QString
   fun:_ZN3gui6window8house_qt16_create_toolbarsEv
   fun:_ZN3gui6window8house_qtC1Ev
   fun:_ZN3gui12house_app_qt5startEv
   fun:_ZN17app_functionality8house_qt3runEv
   fun:_Z7do_mainRiPPc
   fun:main
}
{
   <insert_a_suppression_name_here>
   Memcheck:Leak
   fun:malloc
   fun:_Z7qMallocj
   fun:_ZN9QListData11detach_growEPii
   fun:_ZN5QListIP7QActionE18detach_helper_growEii
   fun:_ZN7QWidget12insertActionEP7QActionS1_
   fun:_ZN7QWidget9addActionEP7QAction
   fun:_ZN3gui6window8house_qt16_create_toolbarsEv
   fun:_ZN3gui6window8house_qtC1Ev
   fun:_ZN3gui12house_app_qt5startEv
   fun:_ZN17app_functionality8house_qt3runEv
   fun:_Z7do_mainRiPPc
   fun:main
}
{
   <insert_a_suppression_name_here>
   Memcheck:Leak
   fun:malloc
   fun:_Z7qMallocj
   fun:_ZN9QListData11detach_growEPii
   fun:_ZN5QListIP12QToolBarItemE18detach_helper_growEii
   fun:_ZN14QToolBarLayout12insertActionEiP7QAction
   fun:_ZN8QToolBar11actionEventEP12QActionEvent
   fun:_ZN7QWidget5eventEP6QEvent
   fun:_ZN8QToolBar5eventEP6QEvent
   fun:_ZN19QApplicationPrivate13notify_helperEP7QObjectP6QEvent
   fun:_ZN12QApplication6notifyEP7QObjectP6QEvent
   fun:_ZN16QCoreApplication14notifyInternalEP7QObjectP6QEvent
   fun:_ZN7QWidget12insertActionEP7QActionS1_
}
{
   <insert_a_suppression_name_here>
   Memcheck:Leak
   fun:_Znwj
   fun:_ZN18QMetaObjectPrivate7connectEPK7QObjectiS2_iiPi
   fun:_ZN7QObject7connectEPKS_PKcS1_S3_N2Qt14ConnectionTypeE
   fun:_ZN18QToolButtonPrivate4initEv
   fun:_ZN11QToolButtonC2EP7QWidget
   fun:_ZN17QToolBarExtensionC1EP7QWidget
   fun:_ZN14QToolBarLayoutC1EP7QWidget
   fun:_ZN15QToolBarPrivate4initEv
   fun:_ZN8QToolBarC1EP7QWidget
   fun:_ZN11QMainWindow10addToolBarERK7QString
   fun:_ZN3gui6window8house_qt16_create_toolbarsEv
   fun:_ZN3gui6window8house_qtC1Ev
}
{
   <insert_a_suppression_name_here>
   Memcheck:Leak
   fun:_Znwj
   fun:_ZN18QMetaObjectPrivate7connectEPK7QObjectiS2_iiPi
   fun:_ZN7QObject7connectEPKS_PKcS1_S3_N2Qt14ConnectionTypeE
   fun:_ZN14QToolBarLayoutC1EP7QWidget
   fun:_ZN15QToolBarPrivate4initEv
   fun:_ZN8QToolBarC1EP7QWidget
   fun:_ZN11QMainWindow10addToolBarERK7QString
   fun:_ZN3gui6window8house_qt16_create_toolbarsEv
   fun:_ZN3gui6window8house_qtC1Ev
   fun:_ZN3gui12house_app_qt5startEv
   fun:_ZN17app_functionality8house_qt3runEv
   fun:_Z7do_mainRiPPc
}
{
   <insert_a_suppression_name_here>
   Memcheck:Leak
   fun:_Znwj
   fun:_ZN18QMetaObjectPrivate7connectEPK7QObjectiS2_iiPi
   fun:_ZN7QObject7connectEPKS_PKcS1_S3_N2Qt14ConnectionTypeE
   fun:_ZN14QToolBarLayout15setUsePopupMenuEb
   fun:_ZN14QToolBarLayoutC1EP7QWidget
   fun:_ZN15QToolBarPrivate4initEv
   fun:_ZN8QToolBarC1EP7QWidget
   fun:_ZN11QMainWindow10addToolBarERK7QString
   fun:_ZN3gui6window8house_qt16_create_toolbarsEv
   fun:_ZN3gui6window8house_qtC1Ev
   fun:_ZN3gui12house_app_qt5startEv
   fun:_ZN17app_functionality8house_qt3runEv
}
{
   <insert_a_suppression_name_here>
   Memcheck:Leak
   fun:_Znwj
   fun:_ZN18QMetaObjectPrivate7connectEPK7QObjectiS2_iiPi
   fun:_ZN7QObject7connectEPKS_PKcS1_S3_N2Qt14ConnectionTypeE
   fun:_ZN11QMainWindow10addToolBarEN2Qt11ToolBarAreaEP8QToolBar
   fun:_ZN11QMainWindow10addToolBarEP8QToolBar
   fun:_ZN11QMainWindow10addToolBarERK7QString
   fun:_ZN3gui6window8house_qt16_create_toolbarsEv
   fun:_ZN3gui6window8house_qtC1Ev
   fun:_ZN3gui12house_app_qt5startEv
   fun:_ZN17app_functionality8house_qt3runEv
   fun:_Z7do_mainRiPPc
   fun:main
}
{
   <insert_a_suppression_name_here>
   Memcheck:Leak
   fun:_Znwj
   fun:_ZN18QMetaObjectPrivate7connectEPK7QObjectiS2_iiPi
   fun:_ZN7QObject7connectEPKS_PKcS1_S3_N2Qt14ConnectionTypeE
   fun:_ZN11QMainWindow10addToolBarEN2Qt11ToolBarAreaEP8QToolBar
   fun:_ZN11QMainWindow10addToolBarEP8QToolBar
   fun:_ZN11QMainWindow10addToolBarERK7QString
   fun:_ZN3gui6window8house_qt16_create_toolbarsEv
   fun:_ZN3gui6window8house_qtC1Ev
   fun:_ZN3gui12house_app_qt5startEv
   fun:_ZN17app_functionality8house_qt3runEv
   fun:_Z7do_mainRiPPc
   fun:main
}
{
   <insert_a_suppression_name_here>
   Memcheck:Leak
   fun:malloc
   fun:_Z7qMallocj
   fun:_ZN9QListData11detach_growEPii
   fun:_ZN5QListIP7QWidgetE18detach_helper_growEii
   fun:_ZN5QListIP7QWidgetE6appendERKS1_
   fun:_ZN7QWidget12insertActionEP7QActionS1_
   fun:_ZN7QWidget9addActionEP7QAction
   fun:_ZN3gui6window8house_qt16_create_toolbarsEv
   fun:_ZN3gui6window8house_qtC1Ev
   fun:_ZN3gui12house_app_qt5startEv
   fun:_ZN17app_functionality8house_qt3runEv
   fun:_Z7do_mainRiPPc
}
{
   <insert_a_suppression_name_here>
   Memcheck:Leak
   fun:malloc
   fun:_Z7qMallocj
   fun:_ZN9QListData11detach_growEPii
   fun:_ZN5QListIP7QWidgetE18detach_helper_growEii
   fun:_ZN5QListIP7QWidgetE6appendERKS1_
   fun:_ZN7QWidget12insertActionEP7QActionS1_
   fun:_ZN7QWidget9addActionEP7QAction
   fun:_ZN3gui6window8house_qt16_create_toolbarsEv
   fun:_ZN3gui6window8house_qtC1Ev
   fun:_ZN3gui12house_app_qt5startEv
   fun:_ZN17app_functionality8house_qt3runEv
   fun:_Z7do_mainRiPPc
}
{
   <insert_a_suppression_name_here>
   Memcheck:Leak
   fun:malloc
   fun:_Z7qMallocj
   fun:_ZN9QListData11detach_growEPii
   fun:_ZN5QListIP7QWidgetE18detach_helper_growEii
   fun:_ZN5QListIP7QWidgetE6appendERKS1_
   fun:_ZN7QWidget12insertActionEP7QActionS1_
   fun:_ZN7QWidget9addActionEP7QAction
   fun:_ZN3gui6window8house_qt16_create_toolbarsEv
   fun:_ZN3gui6window8house_qtC1Ev
   fun:_ZN3gui12house_app_qt5startEv
   fun:_ZN17app_functionality8house_qt3runEv
   fun:_Z7do_mainRiPPc
}
{
   <insert_a_suppression_name_here>
   Memcheck:Leak
   fun:_Znwj
   fun:_ZN18QMetaObjectPrivate7connectEPK7QObjectiS2_iiPi
   fun:_ZN7QObject7connectEPKS_PKcS1_S3_N2Qt14ConnectionTypeE
   fun:_ZN11QMainWindow10addToolBarEN2Qt11ToolBarAreaEP8QToolBar
   fun:_ZN11QMainWindow10addToolBarEP8QToolBar
   fun:_ZN11QMainWindow10addToolBarERK7QString
   fun:_ZN3gui6window8house_qt16_create_toolbarsEv
   fun:_ZN3gui6window8house_qtC1Ev
   fun:_ZN3gui12house_app_qt5startEv
   fun:_ZN17app_functionality8house_qt3runEv
   fun:_Z7do_mainRiPPc
   fun:main
}
{
   <insert_a_suppression_name_here>
   Memcheck:Leak
   fun:_Znwj
   fun:_ZN18QMetaObjectPrivate7connectEPK7QObjectiS2_iiPi
   fun:_ZN7QObject7connectEPKS_PKcS1_S3_N2Qt14ConnectionTypeE
   fun:_ZN11QMainWindow10addToolBarEN2Qt11ToolBarAreaEP8QToolBar
   fun:_ZN11QMainWindow10addToolBarEP8QToolBar
   fun:_ZN11QMainWindow10addToolBarERK7QString
   fun:_ZN3gui6window8house_qt16_create_toolbarsEv
   fun:_ZN3gui6window8house_qtC1Ev
   fun:_ZN3gui12house_app_qt5startEv
   fun:_ZN17app_functionality8house_qt3runEv
   fun:_Z7do_mainRiPPc
   fun:main
}
{
   <insert_a_suppression_name_here>
   Memcheck:Leak
   fun:malloc
   fun:_Z7qMallocj
   fun:_ZN9QListData11detach_growEPii
   fun:_ZN5QListIP7QActionE18detach_helper_growEii
   fun:_ZN7QWidget12insertActionEP7QActionS1_
   fun:_ZN7QWidget9addActionEP7QAction
   fun:_ZN3gui6window8house_qt16_create_toolbarsEv
   fun:_ZN3gui6window8house_qtC1Ev
   fun:_ZN3gui12house_app_qt5startEv
   fun:_ZN17app_functionality8house_qt3runEv
   fun:_Z7do_mainRiPPc
   fun:main
}
{
   <insert_a_suppression_name_here>
   Memcheck:Leak
   fun:malloc
   fun:_Z7qMallocj
   fun:_ZN9QListData11detach_growEPii
   fun:_ZN5QListIP7QObjectE18detach_helper_growEii
   fun:_ZN5QListIP7QObjectE6appendERKS1_
   fun:_ZN14QObjectPrivate16setParent_helperEP7QObject
   fun:_ZN7QObject9setParentEPS_
   fun:_ZN7QObjectC2ER14QObjectPrivatePS_
   fun:_ZN13QTextDocumentC1EP7QObject
   fun:_ZN19QTextControlPrivate10setContentEN2Qt10TextFormatERK7QStringP13QTextDocument
   fun:_ZN19QTextControlPrivate4initEN2Qt10TextFormatERK7QStringP13QTextDocument
   fun:_ZN12QTextControlC2EP7QObject
}
{
   <insert_a_suppression_name_here>
   Memcheck:Leak
   fun:malloc
   fun:_Z7qMallocj
   fun:_ZN9QListData11detach_growEPii
   fun:_ZN5QListIP7QObjectE18detach_helper_growEii
   fun:_ZN5QListIP7QObjectE6appendERKS1_
   fun:_ZN14QObjectPrivate16setParent_helperEP7QObject
   fun:_ZN7QObject9setParentEPS_
   fun:_ZN7QObjectC2ER14QObjectPrivatePS_
   fun:_ZN27QAbstractTextDocumentLayoutC2ER34QAbstractTextDocumentLayoutPrivateP13QTextDocument
   fun:_ZN19QTextDocumentLayoutC1EP13QTextDocument
   fun:_ZNK13QTextDocument14documentLayoutEv
   fun:_ZN19QTextControlPrivate24_q_documentLayoutChangedEv
}
{
   <insert_a_suppression_name_here>
   Memcheck:Leak
   fun:malloc
   fun:_Z7qMallocj
   fun:_ZN9QListData11detach_growEPii
   fun:_ZN5QListIP7QObjectE18detach_helper_growEii
   fun:_ZN5QListIP7QObjectE6appendERKS1_
   fun:_ZN14QObjectPrivate16setParent_helperEP7QObject
   fun:_ZN7QObject9setParentEPS_
   fun:_ZN7QObjectC2EPS_
   fun:_ZN17QTextImageHandlerC1EP7QObject
   fun:_ZN19QTextDocumentLayoutC1EP13QTextDocument
   fun:_ZNK13QTextDocument14documentLayoutEv
   fun:_ZN19QTextControlPrivate24_q_documentLayoutChangedEv
}
{
   <insert_a_suppression_name_here>
   Memcheck:Leak
   fun:_Znwj
   fun:_ZN18QMetaObjectPrivate7connectEPK7QObjectiS2_iiPi
   fun:_ZN7QObject7connectEPKS_PKcS1_S3_N2Qt14ConnectionTypeE
   fun:_ZN27QAbstractTextDocumentLayout15registerHandlerEiP7QObject
   fun:_ZN19QTextDocumentLayoutC1EP13QTextDocument
   fun:_ZNK13QTextDocument14documentLayoutEv
   fun:_ZN19QTextControlPrivate24_q_documentLayoutChangedEv
   fun:_ZN19QTextControlPrivate10setContentEN2Qt10TextFormatERK7QStringP13QTextDocument
   fun:_ZN19QTextControlPrivate4initEN2Qt10TextFormatERK7QStringP13QTextDocument
   fun:_ZN12QTextControlC2EP7QObject
   fun:_ZN16QTextEditPrivate4initERK7QString
   fun:_ZN9QTextEditC2ER16QTextEditPrivateP7QWidget
}
{
   <insert_a_suppression_name_here>
   Memcheck:Leak
   fun:_Znwj
   fun:_ZN9QHashData14detach_helper2EPFvPNS_4NodeEPvEPFvS1_Eii
   fun:_ZN5QHashIi18QTextObjectHandlerE13detach_helperEv
   fun:_ZN27QAbstractTextDocumentLayout15registerHandlerEiP7QObject
   fun:_ZN19QTextDocumentLayoutC1EP13QTextDocument
   fun:_ZNK13QTextDocument14documentLayoutEv
   fun:_ZN19QTextControlPrivate24_q_documentLayoutChangedEv
   fun:_ZN19QTextControlPrivate10setContentEN2Qt10TextFormatERK7QStringP13QTextDocument
   fun:_ZN19QTextControlPrivate4initEN2Qt10TextFormatERK7QStringP13QTextDocument
   fun:_ZN12QTextControlC2EP7QObject
   fun:_ZN16QTextEditPrivate4initERK7QString
   fun:_ZN9QTextEditC2ER16QTextEditPrivateP7QWidget
}
{
   <insert_a_suppression_name_here>
   Memcheck:Leak
   fun:malloc
   fun:_Z7qMallocj
   fun:_ZN9QListData11detach_growEPii
   fun:_ZN5QListIP18QTextCursorPrivateE18detach_helper_growEii
   fun:_ZN5QListIP18QTextCursorPrivateE6appendERKS1_
   fun:_ZN18QTextCursorPrivateC1EP20QTextDocumentPrivate
   fun:_ZN11QTextCursorC1EP13QTextDocument
   fun:_ZN19QTextControlPrivate10setContentEN2Qt10TextFormatERK7QStringP13QTextDocument
   fun:_ZN19QTextControlPrivate4initEN2Qt10TextFormatERK7QStringP13QTextDocument
   fun:_ZN12QTextControlC2EP7QObject
   fun:_ZN16QTextEditPrivate4initERK7QString
   fun:_ZN9QTextEditC2ER16QTextEditPrivateP7QWidget
}
{
   <insert_a_suppression_name_here>
   Memcheck:Leak
   fun:malloc
   fun:_Z7qMallocj
   fun:_ZN9QListData11detach_growEPii
   fun:_ZN5QListIP14QBoxLayoutItemE18detach_helper_growEii
   fun:_ZN10QBoxLayout12insertWidgetEiP7QWidgeti6QFlagsIN2Qt13AlignmentFlagEE
   fun:_ZN10QBoxLayout9addWidgetEP7QWidgeti6QFlagsIN2Qt13AlignmentFlagEE
   fun:_ZN37QAbstractScrollAreaScrollBarContainerC1EN2Qt11OrientationEP7QWidget
   fun:_ZN26QAbstractScrollAreaPrivate4initEv
   fun:_ZN19QAbstractScrollAreaC2ER26QAbstractScrollAreaPrivateP7QWidget
   fun:_ZN17QAbstractItemViewC2ER24QAbstractItemViewPrivateP7QWidget
   fun:_ZN11QHeaderViewC1EN2Qt11OrientationEP7QWidget
   fun:_ZN16QTreeViewPrivate10initializeEv
}
{
   <insert_a_suppression_name_here>
   Memcheck:Leak
   fun:malloc
   fun:_Z7qMallocj
   fun:_ZN9QListData11detach_growEPii
   fun:_ZN5QListIP7QObjectE18detach_helper_growEii
   fun:_ZN5QListIP7QObjectE6appendERKS1_
   fun:_ZN14QObjectPrivate16setParent_helperEP7QObject
   fun:_ZN7QObject9setParentEPS_
   fun:_ZN7QObjectC2ER14QObjectPrivatePS_
   fun:_ZN7QActionC1EP7QObject
   fun:_ZN12QMenuPrivate4initEv
   fun:_ZN5QMenuC1EP7QWidget
   fun:_ZN3gui4view8users_qt20_create_context_menuEv
}
{
   <insert_a_suppression_name_here>
   Memcheck:Leak
   fun:malloc
   fun:_Z7qMallocj
   fun:_ZN9QListData11detach_growEPii
   fun:_ZN5QListIP7QWidgetE18detach_helper_growEii
   fun:_ZN5QListIP7QWidgetE6appendERKS1_
   fun:_ZN7QWidget12insertActionEP7QActionS1_
   fun:_ZN7QWidget9addActionEP7QAction
   fun:_ZN3gui4view8users_qt20_create_context_menuEv
   fun:_ZN3gui4view8users_qtC1EP7QWidgetRKSs
   fun:_ZN3gui6window8house_qt15_create_widgetsEv
   fun:_ZN3gui6window8house_qtC1Ev
   fun:_ZN3gui12house_app_qt5startEv
}
{
   <insert_a_suppression_name_here>
   Memcheck:Leak
   fun:_Znwj
   fun:_ZN18QMetaObjectPrivate7connectEPK7QObjectiS2_iiPi
   fun:_ZN7QObject7connectEPKS_PKcS1_S3_N2Qt14ConnectionTypeE
   fun:_ZN5QMenu11actionEventEP12QActionEvent
   fun:_ZN7QWidget5eventEP6QEvent
   fun:_ZN5QMenu5eventEP6QEvent
   fun:_ZN19QApplicationPrivate13notify_helperEP7QObjectP6QEvent
   fun:_ZN12QApplication6notifyEP7QObjectP6QEvent
   fun:_ZN16QCoreApplication14notifyInternalEP7QObjectP6QEvent
   fun:_ZN7QWidget12insertActionEP7QActionS1_
   fun:_ZN7QWidget9addActionEP7QAction
   fun:_ZN3gui4view8users_qt20_create_context_menuEv
}
{
   <insert_a_suppression_name_here>
   Memcheck:Leak
   fun:_Znwj
   fun:_ZN18QMetaObjectPrivate7connectEPK7QObjectiS2_iiPi
   fun:_ZN7QObject7connectEPKS_PKcS1_S3_N2Qt14ConnectionTypeE
   fun:_ZN5QMenu11actionEventEP12QActionEvent
   fun:_ZN7QWidget5eventEP6QEvent
   fun:_ZN5QMenu5eventEP6QEvent
   fun:_ZN19QApplicationPrivate13notify_helperEP7QObjectP6QEvent
   fun:_ZN12QApplication6notifyEP7QObjectP6QEvent
   fun:_ZN16QCoreApplication14notifyInternalEP7QObjectP6QEvent
   fun:_ZN7QWidget12insertActionEP7QActionS1_
   fun:_ZN7QWidget9addActionEP7QAction
   fun:_ZN3gui4view8users_qt20_create_context_menuEv
}
{
   <insert_a_suppression_name_here>
   Memcheck:Leak
   fun:malloc
   fun:_Z7qMallocj
   fun:_ZN7QString17fromLatin1_helperEPKci
   fun:_ZN7QString16fromAscii_helperEPKci
   fun:_ZN7QStringC1EPKc
   fun:_ZN3gui4view8users_qt20_create_context_menuEv
   fun:_ZN3gui4view8users_qtC1EP7QWidgetRKSs
   fun:_ZN3gui6window8house_qt15_create_widgetsEv
   fun:_ZN3gui6window8house_qtC1Ev
   fun:_ZN3gui12house_app_qt5startEv
   fun:_ZN17app_functionality8house_qt3runEv
   fun:_Z7do_mainRiPPc
}
{
   <insert_a_suppression_name_here>
   Memcheck:Leak
   fun:malloc
   fun:_Z7qMallocj
   fun:_ZN9QListData11detach_growEPii
   fun:_ZN5QListIP7QObjectE18detach_helper_growEii
   fun:_ZN5QListIP7QObjectE6appendERKS1_
   fun:_ZN14QObjectPrivate16setParent_helperEP7QObject
   fun:_ZN7QObject9setParentEPS_
   fun:_ZN7QObjectC2ER14QObjectPrivatePS_
   fun:_ZN7QActionC1EP7QObject
   fun:_ZN12QMenuPrivate4initEv
   fun:_ZN5QMenuC1ERK7QStringP7QWidget
   fun:_ZN3gui4view8users_qt20_create_context_menuEv
}
{
   <insert_a_suppression_name_here>
   Memcheck:Leak
   fun:_Znwj
   fun:_ZN18QMetaObjectPrivate7connectEPK7QObjectiS2_iiPi
   fun:_ZN7QObject7connectEPKS_PKcS1_S3_N2Qt14ConnectionTypeE
   fun:_ZN12QActionGroup9addActionEP7QAction
   fun:_ZN3gui4view8users_qt20_create_context_menuEv
   fun:_ZN3gui4view8users_qtC1EP7QWidgetRKSs
   fun:_ZN3gui6window8house_qt15_create_widgetsEv
   fun:_ZN3gui6window8house_qtC1Ev
   fun:_ZN3gui12house_app_qt5startEv
   fun:_ZN17app_functionality8house_qt3runEv
   fun:_Z7do_mainRiPPc
   fun:main
}
{
   <insert_a_suppression_name_here>
   Memcheck:Leak
   fun:_Znwj
   fun:_ZN18QMetaObjectPrivate7connectEPK7QObjectiS2_iiPi
   fun:_ZN7QObject7connectEPKS_PKcS1_S3_N2Qt14ConnectionTypeE
   fun:_ZN12QActionGroup9addActionEP7QAction
   fun:_ZN3gui4view8users_qt20_create_context_menuEv
   fun:_ZN3gui4view8users_qtC1EP7QWidgetRKSs
   fun:_ZN3gui6window8house_qt15_create_widgetsEv
   fun:_ZN3gui6window8house_qtC1Ev
   fun:_ZN3gui12house_app_qt5startEv
   fun:_ZN17app_functionality8house_qt3runEv
   fun:_Z7do_mainRiPPc
   fun:main
}
{
   <insert_a_suppression_name_here>
   Memcheck:Leak
   fun:_Znwj
   fun:_ZN18QMetaObjectPrivate7connectEPK7QObjectiS2_iiPi
   fun:_ZN7QObject7connectEPKS_PKcS1_S3_N2Qt14ConnectionTypeE
   fun:_ZN12QActionGroup9addActionEP7QAction
   fun:_ZN3gui4view8users_qt20_create_context_menuEv
   fun:_ZN3gui4view8users_qtC1EP7QWidgetRKSs
   fun:_ZN3gui6window8house_qt15_create_widgetsEv
   fun:_ZN3gui6window8house_qtC1Ev
   fun:_ZN3gui12house_app_qt5startEv
   fun:_ZN17app_functionality8house_qt3runEv
   fun:_Z7do_mainRiPPc
   fun:main
}
{
   <insert_a_suppression_name_here>
   Memcheck:Leak
   fun:_Znwj
   fun:_ZN18QMetaObjectPrivate7connectEPK7QObjectiS2_iiPi
   fun:_ZN7QObject7connectEPKS_PKcS1_S3_N2Qt14ConnectionTypeE
   fun:_ZN12QActionGroup9addActionEP7QAction
   fun:_ZN3gui4view8users_qt20_create_context_menuEv
   fun:_ZN3gui4view8users_qtC1EP7QWidgetRKSs
   fun:_ZN3gui6window8house_qt15_create_widgetsEv
   fun:_ZN3gui6window8house_qtC1Ev
   fun:_ZN3gui12house_app_qt5startEv
   fun:_ZN17app_functionality8house_qt3runEv
   fun:_Z7do_mainRiPPc
   fun:main
}
{
   <insert_a_suppression_name_here>
   Memcheck:Leak
   fun:_Znwj
   fun:_ZN18QMetaObjectPrivate7connectEPK7QObjectiS2_iiPi
   fun:_ZN7QObject7connectEPKS_PKcS1_S3_N2Qt14ConnectionTypeE
   fun:_ZN12QActionGroup9addActionEP7QAction
   fun:_ZN3gui4view8users_qt20_create_context_menuEv
   fun:_ZN3gui4view8users_qtC1EP7QWidgetRKSs
   fun:_ZN3gui6window8house_qt15_create_widgetsEv
   fun:_ZN3gui6window8house_qtC1Ev
   fun:_ZN3gui12house_app_qt5startEv
   fun:_ZN17app_functionality8house_qt3runEv
   fun:_Z7do_mainRiPPc
   fun:main
}
{
   <insert_a_suppression_name_here>
   Memcheck:Leak
   fun:_Znwj
   fun:_ZN18QMetaObjectPrivate7connectEPK7QObjectiS2_iiPi
   fun:_ZN7QObject7connectEPKS_PKcS1_S3_N2Qt14ConnectionTypeE
   fun:_ZN12QActionGroup9addActionEP7QAction
   fun:_ZN3gui4view8users_qt20_create_context_menuEv
   fun:_ZN3gui4view8users_qtC1EP7QWidgetRKSs
   fun:_ZN3gui6window8house_qt15_create_widgetsEv
   fun:_ZN3gui6window8house_qtC1Ev
   fun:_ZN3gui12house_app_qt5startEv
   fun:_ZN17app_functionality8house_qt3runEv
   fun:_Z7do_mainRiPPc
   fun:main
}
{
   <insert_a_suppression_name_here>
   Memcheck:Leak
   fun:_Znwj
   fun:_ZN18QMetaObjectPrivate7connectEPK7QObjectiS2_iiPi
   fun:_ZN7QObject7connectEPKS_PKcS1_S3_N2Qt14ConnectionTypeE
   fun:_ZN12QActionGroup9addActionEP7QAction
   fun:_ZN3gui4view8users_qt20_create_context_menuEv
   fun:_ZN3gui4view8users_qtC1EP7QWidgetRKSs
   fun:_ZN3gui6window8house_qt15_create_widgetsEv
   fun:_ZN3gui6window8house_qtC1Ev
   fun:_ZN3gui12house_app_qt5startEv
   fun:_ZN17app_functionality8house_qt3runEv
   fun:_Z7do_mainRiPPc
   fun:main
}
{
   <insert_a_suppression_name_here>
   Memcheck:Leak
   fun:_Znwj
   fun:_ZN18QMetaObjectPrivate7connectEPK7QObjectiS2_iiPi
   fun:_ZN7QObject7connectEPKS_PKcS1_S3_N2Qt14ConnectionTypeE
   fun:_ZN12QActionGroup9addActionEP7QAction
   fun:_ZN3gui4view8users_qt20_create_context_menuEv
   fun:_ZN3gui4view8users_qtC1EP7QWidgetRKSs
   fun:_ZN3gui6window8house_qt15_create_widgetsEv
   fun:_ZN3gui6window8house_qtC1Ev
   fun:_ZN3gui12house_app_qt5startEv
   fun:_ZN17app_functionality8house_qt3runEv
   fun:_Z7do_mainRiPPc
   fun:main
}
{
   <insert_a_suppression_name_here>
   Memcheck:Leak
   fun:_Znwj
   fun:_ZN18QMetaObjectPrivate7connectEPK7QObjectiS2_iiPi
   fun:_ZN7QObject7connectEPKS_PKcS1_S3_N2Qt14ConnectionTypeE
   fun:_ZN12QActionGroup9addActionEP7QAction
   fun:_ZN3gui4view8users_qt20_create_context_menuEv
   fun:_ZN3gui4view8users_qtC1EP7QWidgetRKSs
   fun:_ZN3gui6window8house_qt15_create_widgetsEv
   fun:_ZN3gui6window8house_qtC1Ev
   fun:_ZN3gui12house_app_qt5startEv
   fun:_ZN17app_functionality8house_qt3runEv
   fun:_Z7do_mainRiPPc
   fun:main
}
{
   <insert_a_suppression_name_here>
   Memcheck:Leak
   fun:_Znwj
   fun:_ZN18QMetaObjectPrivate7connectEPK7QObjectiS2_iiPi
   fun:_ZN7QObject7connectEPKS_PKcS1_S3_N2Qt14ConnectionTypeE
   fun:_ZN12QActionGroup9addActionEP7QAction
   fun:_ZN3gui4view8users_qt20_create_context_menuEv
   fun:_ZN3gui4view8users_qtC1EP7QWidgetRKSs
   fun:_ZN3gui6window8house_qt15_create_widgetsEv
   fun:_ZN3gui6window8house_qtC1Ev
   fun:_ZN3gui12house_app_qt5startEv
   fun:_ZN17app_functionality8house_qt3runEv
   fun:_Z7do_mainRiPPc
   fun:main
}
{
   <insert_a_suppression_name_here>
   Memcheck:Leak
   fun:_Znwj
   fun:_ZN18QMetaObjectPrivate7connectEPK7QObjectiS2_iiPi
   fun:_ZN7QObject7connectEPKS_PKcS1_S3_N2Qt14ConnectionTypeE
   fun:_ZN12QActionGroup9addActionEP7QAction
   fun:_ZN3gui4view8users_qt20_create_context_menuEv
   fun:_ZN3gui4view8users_qtC1EP7QWidgetRKSs
   fun:_ZN3gui6window8house_qt15_create_widgetsEv
   fun:_ZN3gui6window8house_qtC1Ev
   fun:_ZN3gui12house_app_qt5startEv
   fun:_ZN17app_functionality8house_qt3runEv
   fun:_Z7do_mainRiPPc
   fun:main
}
{
   <insert_a_suppression_name_here>
   Memcheck:Leak
   fun:_Znwj
   fun:_ZN18QMetaObjectPrivate7connectEPK7QObjectiS2_iiPi
   fun:_ZN7QObject7connectEPKS_PKcS1_S3_N2Qt14ConnectionTypeE
   fun:_ZN12QActionGroup9addActionEP7QAction
   fun:_ZN3gui4view8users_qt20_create_context_menuEv
   fun:_ZN3gui4view8users_qtC1EP7QWidgetRKSs
   fun:_ZN3gui6window8house_qt15_create_widgetsEv
   fun:_ZN3gui6window8house_qtC1Ev
   fun:_ZN3gui12house_app_qt5startEv
   fun:_ZN17app_functionality8house_qt3runEv
   fun:_Z7do_mainRiPPc
   fun:main
}
{
   <insert_a_suppression_name_here>
   Memcheck:Leak
   fun:malloc
   fun:_Z7qMallocj
   fun:_ZN9QListData11detach_growEPii
   fun:_ZN5QListIP7QWidgetE18detach_helper_growEii
   fun:_ZN5QListIP7QWidgetE6appendERKS1_
   fun:_ZN7QWidget12insertActionEP7QActionS1_
   fun:_ZN7QWidget9addActionEP7QAction
   fun:_ZN5QMenu7addMenuEPS_
   fun:_ZN3gui4view8users_qt20_create_context_menuEv
   fun:_ZN3gui4view8users_qtC1EP7QWidgetRKSs
   fun:_ZN3gui6window8house_qt15_create_widgetsEv
   fun:_ZN3gui6window8house_qtC1Ev
}
{
   <insert_a_suppression_name_here>
   Memcheck:Leak
   fun:_Znwj
   fun:_ZN18QMetaObjectPrivate7connectEPK7QObjectiS2_iiPi
   fun:_ZN7QObject7connectEPKS_PKcS1_S3_N2Qt14ConnectionTypeE
   fun:_ZN5QMenu11actionEventEP12QActionEvent
   fun:_ZN7QWidget5eventEP6QEvent
   fun:_ZN5QMenu5eventEP6QEvent
   fun:_ZN19QApplicationPrivate13notify_helperEP7QObjectP6QEvent
   fun:_ZN12QApplication6notifyEP7QObjectP6QEvent
   fun:_ZN16QCoreApplication14notifyInternalEP7QObjectP6QEvent
   fun:_ZN7QWidget12insertActionEP7QActionS1_
   fun:_ZN7QWidget9addActionEP7QAction
   fun:_ZN5QMenu7addMenuEPS_
}
{
   <insert_a_suppression_name_here>
   Memcheck:Leak
   fun:_Znwj
   fun:_ZN18QMetaObjectPrivate7connectEPK7QObjectiS2_iiPi
   fun:_ZN7QObject7connectEPKS_PKcS1_S3_N2Qt14ConnectionTypeE
   fun:_ZN5QMenu11actionEventEP12QActionEvent
   fun:_ZN7QWidget5eventEP6QEvent
   fun:_ZN5QMenu5eventEP6QEvent
   fun:_ZN19QApplicationPrivate13notify_helperEP7QObjectP6QEvent
   fun:_ZN12QApplication6notifyEP7QObjectP6QEvent
   fun:_ZN16QCoreApplication14notifyInternalEP7QObjectP6QEvent
   fun:_ZN7QWidget12insertActionEP7QActionS1_
   fun:_ZN7QWidget9addActionEP7QAction
   fun:_ZN5QMenu7addMenuEPS_
}
{
   <insert_a_suppression_name_here>
   Memcheck:Leak
   fun:malloc
   fun:_Z7qMallocj
   fun:_ZN9QListData11detach_growEPii
   fun:_ZN5QListIP7QWidgetE18detach_helper_growEii
   fun:_ZN5QListIP7QWidgetE6appendERKS1_
   fun:_ZN7QWidget12insertActionEP7QActionS1_
   fun:_ZN7QWidget9addActionEP7QAction
   fun:_ZN3gui4view8users_qt20_create_context_menuEv
   fun:_ZN3gui4view8users_qtC1EP7QWidgetRKSs
   fun:_ZN3gui6window8house_qt15_create_widgetsEv
   fun:_ZN3gui6window8house_qtC1Ev
   fun:_ZN3gui12house_app_qt5startEv
}
{
   <insert_a_suppression_name_here>
   Memcheck:Leak
   fun:_Znwj
   fun:_ZN18QMetaObjectPrivate7connectEPK7QObjectiS2_iiPi
   fun:_ZN7QObject7connectEPKS_PKcS1_S3_N2Qt14ConnectionTypeE
   fun:_ZN5QMenu11actionEventEP12QActionEvent
   fun:_ZN7QWidget5eventEP6QEvent
   fun:_ZN5QMenu5eventEP6QEvent
   fun:_ZN19QApplicationPrivate13notify_helperEP7QObjectP6QEvent
   fun:_ZN12QApplication6notifyEP7QObjectP6QEvent
   fun:_ZN16QCoreApplication14notifyInternalEP7QObjectP6QEvent
   fun:_ZN7QWidget12insertActionEP7QActionS1_
   fun:_ZN7QWidget9addActionEP7QAction
   fun:_ZN3gui4view8users_qt20_create_context_menuEv
}
{
   <insert_a_suppression_name_here>
   Memcheck:Leak
   fun:_Znwj
   fun:_ZN18QMetaObjectPrivate7connectEPK7QObjectiS2_iiPi
   fun:_ZN7QObject7connectEPKS_PKcS1_S3_N2Qt14ConnectionTypeE
   fun:_ZN5QMenu11actionEventEP12QActionEvent
   fun:_ZN7QWidget5eventEP6QEvent
   fun:_ZN5QMenu5eventEP6QEvent
   fun:_ZN19QApplicationPrivate13notify_helperEP7QObjectP6QEvent
   fun:_ZN12QApplication6notifyEP7QObjectP6QEvent
   fun:_ZN16QCoreApplication14notifyInternalEP7QObjectP6QEvent
   fun:_ZN7QWidget12insertActionEP7QActionS1_
   fun:_ZN7QWidget9addActionEP7QAction
   fun:_ZN3gui4view8users_qt20_create_context_menuEv
}
{
   <insert_a_suppression_name_here>
   Memcheck:Leak
   fun:_Znwj
   fun:_ZN18QMetaObjectPrivate7connectEPK7QObjectiS2_iiPi
   fun:_ZN7QObject7connectEPKS_PKcS1_S3_N2Qt14ConnectionTypeE
   fun:_ZN3gui4view8users_qt20_create_context_menuEv
   fun:_ZN3gui4view8users_qtC1EP7QWidgetRKSs
   fun:_ZN3gui6window8house_qt15_create_widgetsEv
   fun:_ZN3gui6window8house_qtC1Ev
   fun:_ZN3gui12house_app_qt5startEv
   fun:_ZN17app_functionality8house_qt3runEv
   fun:_Z7do_mainRiPPc
   fun:main
}
{
   <insert_a_suppression_name_here>
   Memcheck:Leak
   fun:_Znwj
   fun:_ZN18QMetaObjectPrivate7connectEPK7QObjectiS2_iiPi
   fun:_ZN7QObject7connectEPKS_PKcS1_S3_N2Qt14ConnectionTypeE
   fun:_ZN3gui4view8users_qt15_create_signalsEv
   fun:_ZN3gui4view8users_qtC1EP7QWidgetRKSs
   fun:_ZN3gui6window8house_qt15_create_widgetsEv
   fun:_ZN3gui6window8house_qtC1Ev
   fun:_ZN3gui12house_app_qt5startEv
   fun:_ZN17app_functionality8house_qt3runEv
   fun:_Z7do_mainRiPPc
   fun:main
}
{
   <insert_a_suppression_name_here>
   Memcheck:Leak
   fun:_Znwj
   fun:_ZN18QMetaObjectPrivate7connectEPK7QObjectiS2_iiPi
   fun:_ZN7QObject7connectEPKS_PKcS1_S3_N2Qt14ConnectionTypeE
   fun:_ZN3gui4view8users_qt15_create_signalsEv
   fun:_ZN3gui4view8users_qtC1EP7QWidgetRKSs
   fun:_ZN3gui6window8house_qt15_create_widgetsEv
   fun:_ZN3gui6window8house_qtC1Ev
   fun:_ZN3gui12house_app_qt5startEv
   fun:_ZN17app_functionality8house_qt3runEv
   fun:_Z7do_mainRiPPc
   fun:main
}
{
   <insert_a_suppression_name_here>
   Memcheck:Leak
   fun:_Znwj
   fun:_ZN18QMetaObjectPrivate7connectEPK7QObjectiS2_iiPi
   fun:_ZN7QObject7connectEPKS_PKcS1_S3_N2Qt14ConnectionTypeE
   fun:_ZN3gui4view8users_qt15_create_signalsEv
   fun:_ZN3gui4view8users_qtC1EP7QWidgetRKSs
   fun:_ZN3gui6window8house_qt15_create_widgetsEv
   fun:_ZN3gui6window8house_qtC1Ev
   fun:_ZN3gui12house_app_qt5startEv
   fun:_ZN17app_functionality8house_qt3runEv
   fun:_Z7do_mainRiPPc
   fun:main
}
{
   <insert_a_suppression_name_here>
   Memcheck:Leak
   fun:_Znwj
   fun:_ZN18QMetaObjectPrivate7connectEPK7QObjectiS2_iiPi
   fun:_ZN7QObject7connectEPKS_PKcS1_S3_N2Qt14ConnectionTypeE
   fun:_ZN3gui4view8users_qt15_create_signalsEv
   fun:_ZN3gui4view8users_qtC1EP7QWidgetRKSs
   fun:_ZN3gui6window8house_qt15_create_widgetsEv
   fun:_ZN3gui6window8house_qtC1Ev
   fun:_ZN3gui12house_app_qt5startEv
   fun:_ZN17app_functionality8house_qt3runEv
   fun:_Z7do_mainRiPPc
   fun:main
}
{
   <insert_a_suppression_name_here>
   Memcheck:Leak
   fun:_Znwj
   fun:_ZN18QMetaObjectPrivate7connectEPK7QObjectiS2_iiPi
   fun:_ZN7QObject7connectEPKS_PKcS1_S3_N2Qt14ConnectionTypeE
   fun:_ZN3gui4view8users_qt15_create_signalsEv
   fun:_ZN3gui4view8users_qtC1EP7QWidgetRKSs
   fun:_ZN3gui6window8house_qt15_create_widgetsEv
   fun:_ZN3gui6window8house_qtC1Ev
   fun:_ZN3gui12house_app_qt5startEv
   fun:_ZN17app_functionality8house_qt3runEv
   fun:_Z7do_mainRiPPc
   fun:main
}
{
   <insert_a_suppression_name_here>
   Memcheck:Leak
   fun:malloc
   fun:_Z7qMallocj
   fun:_ZN9QListData11detach_growEPii
   fun:_ZN5QListI8QPointerI7QObjectEE18detach_helper_growEii
   fun:_ZN7QObject18installEventFilterEPS_
   fun:_ZN3gui4view8users_qtC1EP7QWidgetRKSs
   fun:_ZN3gui6window8house_qt15_create_widgetsEv
   fun:_ZN3gui6window8house_qtC1Ev
   fun:_ZN3gui12house_app_qt5startEv
   fun:_ZN17app_functionality8house_qt3runEv
   fun:_Z7do_mainRiPPc
   fun:main
}
{
   <insert_a_suppression_name_here>
   Memcheck:Leak
   fun:malloc
   fun:_Z7qMallocj
   fun:_ZN9QListData11detach_growEPii
   fun:_ZN5QListI8QPointerI7QObjectEE18detach_helper_growEii
   fun:_ZN7QObject18installEventFilterEPS_
   fun:_ZN3gui4view8rooms_qtC1EP7QWidget
   fun:_ZN3gui6window8house_qt15_create_widgetsEv
   fun:_ZN3gui6window8house_qtC1Ev
   fun:_ZN3gui12house_app_qt5startEv
   fun:_ZN17app_functionality8house_qt3runEv
   fun:_Z7do_mainRiPPc
   fun:main
}
{
   <insert_a_suppression_name_here>
   Memcheck:Leak
   fun:_Znwj
   fun:_ZN16QSplitterPrivate12insertWidgetEiP7QWidget
   fun:_ZN16QSplitterPrivate19insertWidget_helperEiP7QWidgetb
   fun:_ZN9QSplitter12insertWidgetEiP7QWidget
   fun:_ZN9QSplitter9addWidgetEP7QWidget
   fun:_ZN3gui6window8house_qt14_create_layoutEv
   fun:_ZN3gui6window8house_qtC1Ev
   fun:_ZN3gui12house_app_qt5startEv
   fun:_ZN17app_functionality8house_qt3runEv
   fun:_Z7do_mainRiPPc
   fun:main
}
{
   <insert_a_suppression_name_here>
   Memcheck:Leak
   fun:malloc
   fun:_Z7qMallocj
   fun:_ZN9QListData11detach_growEPii
   fun:_ZN5QListIP21QSplitterLayoutStructE18detach_helper_growEii
   fun:_ZN16QSplitterPrivate12insertWidgetEiP7QWidget
   fun:_ZN16QSplitterPrivate19insertWidget_helperEiP7QWidgetb
   fun:_ZN9QSplitter12insertWidgetEiP7QWidget
   fun:_ZN9QSplitter9addWidgetEP7QWidget
   fun:_ZN3gui6window8house_qt14_create_layoutEv
   fun:_ZN3gui6window8house_qtC1Ev
   fun:_ZN3gui12house_app_qt5startEv
   fun:_ZN17app_functionality8house_qt3runEv
}
{
   <insert_a_suppression_name_here>
   Memcheck:Leak
   fun:_Znwj
   fun:_ZN16QSplitterPrivate12insertWidgetEiP7QWidget
   fun:_ZN16QSplitterPrivate19insertWidget_helperEiP7QWidgetb
   fun:_ZN9QSplitter12insertWidgetEiP7QWidget
   fun:_ZN9QSplitter9addWidgetEP7QWidget
   fun:_ZN3gui6window8house_qt14_create_layoutEv
   fun:_ZN3gui6window8house_qtC1Ev
   fun:_ZN3gui12house_app_qt5startEv
   fun:_ZN17app_functionality8house_qt3runEv
   fun:_Z7do_mainRiPPc
   fun:main
}
{
   <insert_a_suppression_name_here>
   Memcheck:Leak
   fun:_Znwj
   fun:_ZN18QMetaObjectPrivate7connectEPK7QObjectiS2_iiPi
   fun:_ZN7QObject7connectEPKS_PKcS1_S3_N2Qt14ConnectionTypeE
   fun:_ZN3gui6window8house_qt16_connect_signalsEv
   fun:_ZN3gui6window8house_qtC1Ev
   fun:_ZN3gui12house_app_qt5startEv
   fun:_ZN17app_functionality8house_qt3runEv
   fun:_Z7do_mainRiPPc
   fun:main
}
{
   <insert_a_suppression_name_here>
   Memcheck:Leak
   fun:_Znwj
   fun:_ZN18QMetaObjectPrivate7connectEPK7QObjectiS2_iiPi
   fun:_ZN7QObject7connectEPKS_PKcS1_S3_N2Qt14ConnectionTypeE
   fun:_ZN3gui6window8house_qt16_connect_signalsEv
   fun:_ZN3gui6window8house_qtC1Ev
   fun:_ZN3gui12house_app_qt5startEv
   fun:_ZN17app_functionality8house_qt3runEv
   fun:_Z7do_mainRiPPc
   fun:main
}
{
   <insert_a_suppression_name_here>
   Memcheck:Leak
   fun:_Znwj
   fun:_ZN18QMetaObjectPrivate7connectEPK7QObjectiS2_iiPi
   fun:_ZN7QObject7connectEPKS_PKcS1_S3_N2Qt14ConnectionTypeE
   fun:_ZN3gui6window8house_qt16_connect_signalsEv
   fun:_ZN3gui6window8house_qtC1Ev
   fun:_ZN3gui12house_app_qt5startEv
   fun:_ZN17app_functionality8house_qt3runEv
   fun:_Z7do_mainRiPPc
   fun:main
}
{
   <insert_a_suppression_name_here>
   Memcheck:Leak
   fun:_Znwj
   fun:_ZN18QMetaObjectPrivate7connectEPK7QObjectiS2_iiPi
   fun:_ZN7QObject7connectEPKS_PKcS1_S3_N2Qt14ConnectionTypeE
   fun:_ZN3gui6window8house_qt16_connect_signalsEv
   fun:_ZN3gui6window8house_qtC1Ev
   fun:_ZN3gui12house_app_qt5startEv
   fun:_ZN17app_functionality8house_qt3runEv
   fun:_Z7do_mainRiPPc
   fun:main
}
{
   <insert_a_suppression_name_here>
   Memcheck:Leak
   fun:_Znwj
   fun:_ZN18QMetaObjectPrivate7connectEPK7QObjectiS2_iiPi
   fun:_ZN7QObject7connectEPKS_PKcS1_S3_N2Qt14ConnectionTypeE
   fun:_ZN3gui6window8house_qt16_connect_signalsEv
   fun:_ZN3gui6window8house_qtC1Ev
   fun:_ZN3gui12house_app_qt5startEv
   fun:_ZN17app_functionality8house_qt3runEv
   fun:_Z7do_mainRiPPc
   fun:main
}
{
   <insert_a_suppression_name_here>
   Memcheck:Leak
   fun:_Znwj
   fun:_ZN18QMetaObjectPrivate7connectEPK7QObjectiS2_iiPi
   fun:_ZN7QObject7connectEPKS_PKcS1_S3_N2Qt14ConnectionTypeE
   fun:_ZN3gui6window8house_qt16_connect_signalsEv
   fun:_ZN3gui6window8house_qtC1Ev
   fun:_ZN3gui12house_app_qt5startEv
   fun:_ZN17app_functionality8house_qt3runEv
   fun:_Z7do_mainRiPPc
   fun:main
}
{
   <insert_a_suppression_name_here>
   Memcheck:Leak
   fun:_Znwj
   fun:_ZN18QMetaObjectPrivate7connectEPK7QObjectiS2_iiPi
   fun:_ZN7QObject7connectEPKS_PKcS1_S3_N2Qt14ConnectionTypeE
   fun:_ZN3gui6window8house_qt16_connect_signalsEv
   fun:_ZN3gui6window8house_qtC1Ev
   fun:_ZN3gui12house_app_qt5startEv
   fun:_ZN17app_functionality8house_qt3runEv
   fun:_Z7do_mainRiPPc
   fun:main
}
{
   <insert_a_suppression_name_here>
   Memcheck:Leak
   fun:_Znwj
   fun:_ZN18QMetaObjectPrivate7connectEPK7QObjectiS2_iiPi
   fun:_ZN7QObject7connectEPKS_PKcS1_S3_N2Qt14ConnectionTypeE
   fun:_ZN3gui6window8house_qt16_connect_signalsEv
   fun:_ZN3gui6window8house_qtC1Ev
   fun:_ZN3gui12house_app_qt5startEv
   fun:_ZN17app_functionality8house_qt3runEv
   fun:_Z7do_mainRiPPc
   fun:main
}
{
   <insert_a_suppression_name_here>
   Memcheck:Leak
   fun:malloc
   fun:_Z7qMallocj
   fun:_ZN9QListData11detach_growEPii
   fun:_ZN5QListI8QPointerI7QObjectEE18detach_helper_growEii
   fun:_ZN7QObject18installEventFilterEPS_
   fun:_ZN10QStatusBar18setSizeGripEnabledEb
   fun:_ZN10QStatusBarC1EP7QWidget
   fun:_ZNK11QMainWindow9statusBarEv
   fun:_ZN3gui6window8house_qt14_update_statusEv
   fun:_ZN3gui6window8house_qtC1Ev
   fun:_ZN3gui12house_app_qt5startEv
   fun:_ZN17app_functionality8house_qt3runEv
}
{
   <insert_a_suppression_name_here>
   Memcheck:Leak
   fun:malloc
   fun:_Z7qMallocj
   fun:_ZN9QListData11detach_growEPii
   fun:_ZN5QListIP14QBoxLayoutItemE18detach_helper_growEii
   fun:_ZN10QBoxLayout13insertSpacingEii
   fun:_ZN10QBoxLayout10addSpacingEi
   fun:_ZN10QStatusBar8reformatEv
   fun:_ZN10QStatusBar18setSizeGripEnabledEb
   fun:_ZN10QStatusBarC1EP7QWidget
   fun:_ZNK11QMainWindow9statusBarEv
   fun:_ZN3gui6window8house_qt14_update_statusEv
   fun:_ZN3gui6window8house_qtC1Ev
}
{
   <insert_a_suppression_name_here>
   Memcheck:Leak
   fun:malloc
   fun:_Z7qMallocj
   fun:_ZN9QListData11detach_growEPii
   fun:_ZN5QListIP7QObjectE18detach_helper_growEii
   fun:_ZN5QListIP7QObjectE6appendERKS1_
   fun:_ZN14QObjectPrivate16setParent_helperEP7QObject
   fun:_ZN7QObject9setParentEPS_
   fun:_ZN7QLayout14addChildLayoutEPS_
   fun:_ZN10QBoxLayout12insertLayoutEiP7QLayouti
   fun:_ZN10QBoxLayout9addLayoutEP7QLayouti
   fun:_ZN10QStatusBar8reformatEv
   fun:_ZN10QStatusBar18setSizeGripEnabledEb
}
{
   <insert_a_suppression_name_here>
   Memcheck:Leak
   fun:malloc
   fun:_Z7qMallocj
   fun:_ZN9QListData11detach_growEPii
   fun:_ZN5QListIP14QBoxLayoutItemE18detach_helper_growEii
   fun:_ZN10QBoxLayout13insertSpacingEii
   fun:_ZN10QBoxLayout10addSpacingEi
   fun:_ZN10QStatusBar8reformatEv
   fun:_ZN10QStatusBar18setSizeGripEnabledEb
   fun:_ZN10QStatusBarC1EP7QWidget
   fun:_ZNK11QMainWindow9statusBarEv
   fun:_ZN3gui6window8house_qt14_update_statusEv
   fun:_ZN3gui6window8house_qtC1Ev
}
{
   <insert_a_suppression_name_here>
   Memcheck:Leak
   fun:malloc
   fun:_Z7qMallocj
   fun:_ZN9QListData11detach_growEPii
   fun:_ZN5QListI22QToolBarAreaLayoutItemE18detach_helper_growEii
   fun:_ZN5QListI22QToolBarAreaLayoutItemE6appendERKS0_
   fun:_ZN18QToolBarAreaLayout12restoreStateER11QDataStreamRK5QListIP8QToolBarEhbb
   fun:_ZN22QMainWindowLayoutState12restoreStateER11QDataStreamRKS_
   fun:_ZN17QMainWindowLayout12restoreStateER11QDataStream
   fun:_ZN11QMainWindow12restoreStateERK10QByteArrayi
   fun:_ZN3gui6window21size_restoring_windowI11QMainWindowE4showEv
   fun:_ZN3gui12house_app_qt5startEv
   fun:_ZN17app_functionality8house_qt3runEv
}
{
   <insert_a_suppression_name_here>
   Memcheck:Leak
   fun:malloc
   fun:_Z7qMallocj
   fun:_ZN9QListData11detach_growEPii
   fun:_ZN5QListI22QToolBarAreaLayoutLineE18detach_helper_growEii
   fun:_ZN5QListI22QToolBarAreaLayoutLineE6appendERKS0_
   fun:_ZN18QToolBarAreaLayout12restoreStateER11QDataStreamRK5QListIP8QToolBarEhbb
   fun:_ZN22QMainWindowLayoutState12restoreStateER11QDataStreamRKS_
   fun:_ZN17QMainWindowLayout12restoreStateER11QDataStream
   fun:_ZN11QMainWindow12restoreStateERK10QByteArrayi
   fun:_ZN3gui6window21size_restoring_windowI11QMainWindowE4showEv
   fun:_ZN3gui12house_app_qt5startEv
   fun:_ZN17app_functionality8house_qt3runEv
}
{
   <insert_a_suppression_name_here>
   Memcheck:Leak
   fun:_Znwj
   fun:_ZN14QWindowSurfaceC2EP7QWidget
   fun:_ZN17QX11WindowSurfaceC1EP7QWidget
   fun:_ZN14QWidgetPrivate30createDefaultWindowSurface_sysEv
   fun:_ZN14QWidgetPrivate26createDefaultWindowSurfaceEv
   fun:_ZN19QWidgetBackingStoreC1EP7QWidget
   fun:_ZN26QWidgetBackingStoreTracker6createEP7QWidget
   fun:_ZN7QWidget6createEmbb
   fun:_ZN7QWidget10setVisibleEb
   fun:_ZN7QWidget4showEv
   fun:_ZN3gui6window21size_restoring_windowI11QMainWindowE4showEv
   fun:_ZN3gui12house_app_qt5startEv
}
{
   <insert_a_suppression_name_here>
   Memcheck:Leak
   fun:malloc
   fun:_Z7qMallocj
   fun:_ZN9QListData11detach_growEPii
   fun:_ZN5QListIP7QActionE18detach_helper_growEii
   fun:_ZN7QWidget12insertActionEP7QActionS1_
   fun:_ZN7QWidget9addActionEP7QAction
   fun:_ZN11QToolButton7setMenuEP5QMenu
   fun:_ZN15QMenuBarPrivate16updateGeometriesEv
   fun:_ZNK8QMenuBar14heightForWidthEi
   fun:_Z21menuBarHeightForWidthP7QWidgeti
   fun:_ZNK7QLayout16totalMinimumSizeEv
   fun:_ZN7QLayout8activateEv
}
{
   <insert_a_suppression_name_here>
   Memcheck:Leak
   fun:malloc
   fun:_Z7qMallocj
   fun:_ZN11QVectorData8allocateEii
   fun:_ZN7QVectorI5QRectE7reallocEii
   fun:_ZN7QVectorI5QRectE13detach_helperEv
   fun:_ZN7QRegion9translateEii
   fun:_ZNK7QRegion10translatedEii
   fun:_ZN14QWidgetPrivate10drawWidgetEP12QPaintDeviceRK7QRegionRK6QPointiP8QPainterP19QWidgetBackingStore
   fun:_ZN14QWidgetPrivate22paintSiblingsRecursiveEP12QPaintDeviceRK5QListIP7QObjectEiRK7QRegionRK6QPointiP8QPainterP19QWidgetBackingStore
   fun:_ZN14QWidgetPrivate10drawWidgetEP12QPaintDeviceRK7QRegionRK6QPointiP8QPainterP19QWidgetBackingStore
   fun:_ZN14QWidgetPrivate22paintSiblingsRecursiveEP12QPaintDeviceRK5QListIP7QObjectEiRK7QRegionRK6QPointiP8QPainterP19QWidgetBackingStore
   fun:_ZN14QWidgetPrivate10drawWidgetEP12QPaintDeviceRK7QRegionRK6QPointiP8QPainterP19QWidgetBackingStore
}
{
   <insert_a_suppression_name_here>
   Memcheck:Leak
   fun:_Znwj
   fun:_ZN3gui4view8users_qt15_add_group_itemERNS1_12_parent_itemEi
   fun:_ZN3gui4view8users_qt32_reserve_place_for_item_in_groupEi
   fun:_ZN3gui4view8users_qt14_add_user_itemEPNS0_12user_item_qtEi
   fun:_ZN3gui4view8users_qt9_new_userERKN11chat_gaming4userEi
   fun:_ZN3gui4view8users_qt12_update_userERKN11chat_gaming4userEi
   fun:_ZN3gui4view8users_qt12_update_userERKN11chat_gaming8user_keyEi
   fun:_ZN3gui4view8users_qt14handle_messageEP7message
   fun:_ZN3gui6window8house_qt14handle_messageEP7message
   fun:_ZN3gui12house_app_qt17_handle_messengerEv
   fun:_ZN3gui12house_app_qt5eventEP6QEvent
   fun:_ZN19QApplicationPrivate13notify_helperEP7QObjectP6QEvent
}
{
   <insert_a_suppression_name_here>
   Memcheck:Leak
   fun:malloc
   fun:_Z7qMallocj
   fun:_ZN9QListData11detach_growEPii
   fun:_ZN5QListIP15QTreeWidgetItemE18detach_helper_growEii
   fun:_ZN15QTreeWidgetItem11insertChildEiPS_
   fun:_ZN15QTreeWidgetItem8addChildEPS_
   fun:_ZN15QTreeWidgetItemC1EP11QTreeWidgeti
   fun:_ZN3gui4view8users_qt15_add_group_itemERNS1_12_parent_itemEi
   fun:_ZN3gui4view8users_qt32_reserve_place_for_item_in_groupEi
   fun:_ZN3gui4view8users_qt14_add_user_itemEPNS0_12user_item_qtEi
   fun:_ZN3gui4view8users_qt9_new_userERKN11chat_gaming4userEi
   fun:_ZN3gui4view8users_qt12_update_userERKN11chat_gaming4userEi
}
{
   <insert_a_suppression_name_here>
   Memcheck:Leak
   fun:malloc
   fun:_Z7qMallocj
   fun:_ZN9QListData11detach_growEPii
   fun:_ZN5QListI8QVariantE18detach_helper_growEii
   fun:_ZN5QListI8QVariantE6appendERKS0_
   fun:_ZN15QTreeWidgetItem7setDataEiiRK8QVariant
   fun:_ZN15QTreeWidgetItem7setTextEiRK7QString
   fun:_ZN3gui4view8users_qt15_add_group_itemERNS1_12_parent_itemEi
   fun:_ZN3gui4view8users_qt32_reserve_place_for_item_in_groupEi
   fun:_ZN3gui4view8users_qt14_add_user_itemEPNS0_12user_item_qtEi
   fun:_ZN3gui4view8users_qt9_new_userERKN11chat_gaming4userEi
   fun:_ZN3gui4view8users_qt12_update_userERKN11chat_gaming4userEi
}
{
   <insert_a_suppression_name_here>
   Memcheck:Leak
   fun:_Znwj
   fun:_ZN9QHashData14detach_helper2EPFvPNS_4NodeEPvEPFvS1_Eii
   fun:_ZN5QHashI11QModelIndexP25QPersistentModelIndexDataE13detach_helperEv
   fun:_ZN25QPersistentModelIndexData6createERK11QModelIndex
   fun:_ZN21QPersistentModelIndexC1ERK11QModelIndex
   fun:_ZN9QTreeView6expandERK11QModelIndex
   fun:_ZN9QTreeView11setExpandedERK11QModelIndexb
   fun:_ZN11QTreeWidget15setItemExpandedEPK15QTreeWidgetItemb
   fun:_ZN15QTreeWidgetItem11setExpandedEb
   fun:_ZN3gui4view8users_qt15_add_group_itemERNS1_12_parent_itemEi
   fun:_ZN3gui4view8users_qt32_reserve_place_for_item_in_groupEi
   fun:_ZN3gui4view8users_qt14_add_user_itemEPNS0_12user_item_qtEi
}
{
   <insert_a_suppression_name_here>
   Memcheck:Leak
   fun:_Znwj
   fun:_ZN9QHashData14detach_helper2EPFvPNS_4NodeEPvEPFvS1_Eii
   fun:_ZN5QHashI21QPersistentModelIndex15QHashDummyValueE13detach_helperEv
   fun:_ZN9QTreeView6expandERK11QModelIndex
   fun:_ZN9QTreeView11setExpandedERK11QModelIndexb
   fun:_ZN11QTreeWidget15setItemExpandedEPK15QTreeWidgetItemb
   fun:_ZN15QTreeWidgetItem11setExpandedEb
   fun:_ZN3gui4view8users_qt15_add_group_itemERNS1_12_parent_itemEi
   fun:_ZN3gui4view8users_qt32_reserve_place_for_item_in_groupEi
   fun:_ZN3gui4view8users_qt14_add_user_itemEPNS0_12user_item_qtEi
   fun:_ZN3gui4view8users_qt9_new_userERKN11chat_gaming4userEi
   fun:_ZN3gui4view8users_qt12_update_userERKN11chat_gaming4userEi
}
{
   <insert_a_suppression_name_here>
   Memcheck:Leak
   fun:_Znwj
   fun:_ZN9QHashData14detach_helper2EPFvPNS_4NodeEPvEPFvS1_Eii
   fun:_ZN5QHashI21QPersistentModelIndex15QHashDummyValueE13detach_helperEv
   fun:_ZN9QTreeView13doItemsLayoutEv
   fun:_ZN17QAbstractItemView10timerEventEP11QTimerEvent
   fun:_ZN9QTreeView10timerEventEP11QTimerEvent
   fun:_ZN7QObject5eventEP6QEvent
   fun:_ZN7QWidget5eventEP6QEvent
   fun:_ZN6QFrame5eventEP6QEvent
   fun:_ZN19QAbstractScrollArea5eventEP6QEvent
   fun:_ZN17QAbstractItemView5eventEP6QEvent
   fun:_ZN11QTreeWidget5eventEP6QEvent
}
{
   <insert_a_suppression_name_here>
   Memcheck:Leak
   fun:_Znwj
   fun:_ZN7QRegionC1ERK5QRectNS_10RegionTypeE
   fun:_ZNK14QWidgetPrivate17getOpaqueChildrenEv
   fun:_ZNK14QWidgetPrivate17getOpaqueChildrenEv
   fun:_ZNK14QWidgetPrivate17getOpaqueChildrenEv
   fun:_ZNK14QWidgetPrivate17getOpaqueChildrenEv
   fun:_ZNK14QWidgetPrivate17getOpaqueChildrenEv
   fun:_ZNK14QWidgetPrivate22subtractOpaqueChildrenER7QRegionRK5QRect
   fun:_ZN14QWidgetPrivate10drawWidgetEP12QPaintDeviceRK7QRegionRK6QPointiP8QPainterP19QWidgetBackingStore
   fun:_ZN19QWidgetBackingStore4syncEv
   fun:_ZN19QWidgetBackingStore4syncEP7QWidgetRK7QRegion
   fun:_ZN14QWidgetPrivate16syncBackingStoreERK7QRegion
}
{
   <insert_a_suppression_name_here>
   Memcheck:Leak
   fun:_Znwj
   fun:_ZN7QRegionC1ERK5QRectNS_10RegionTypeE
   fun:_ZNK14QWidgetPrivate17getOpaqueChildrenEv
   fun:_ZNK14QWidgetPrivate17getOpaqueChildrenEv
   fun:_ZNK14QWidgetPrivate17getOpaqueChildrenEv
   fun:_ZNK14QWidgetPrivate17getOpaqueChildrenEv
   fun:_ZNK14QWidgetPrivate17getOpaqueChildrenEv
   fun:_ZNK14QWidgetPrivate17getOpaqueChildrenEv
   fun:_ZNK14QWidgetPrivate22subtractOpaqueChildrenER7QRegionRK5QRect
   fun:_ZN14QWidgetPrivate10drawWidgetEP12QPaintDeviceRK7QRegionRK6QPointiP8QPainterP19QWidgetBackingStore
   fun:_ZN19QWidgetBackingStore4syncEv
   fun:_ZN19QWidgetBackingStore4syncEP7QWidgetRK7QRegion
}
{
   <insert_a_suppression_name_here>
   Memcheck:Leak
   fun:_Znwj
   fun:_ZN5QIcon7addFileERK7QStringRK5QSizeNS_4ModeENS_5StateE
   fun:_ZN5QIconC1ERK7QString
   fun:_ZN13icon_store_qt13_icon_factoryERKSs
   fun:_ZN13icon_store_qt4loadEPKcRKSs
   fun:_ZN13icon_store_qt13scan_from_dirESsPKcz
   fun:_ZN3gui12house_app_qtC1ERiPPc
   fun:_ZN17app_functionality8house_qtC1ERiPPc
   fun:_Z8init_appRiPPc
   fun:_Z7do_mainRiPPc
   fun:main
}
{
   <insert_a_suppression_name_here>
   Memcheck:Leak
   fun:malloc
   fun:_Z7qMallocj
   fun:_ZN7QStringC1EiN2Qt14InitializationE
   fun:_ZN17QMainWindowLayoutC1EP11QMainWindowP7QLayout
   fun:_ZN18QMainWindowPrivate4initEv
   fun:_ZN11QMainWindowC2EP7QWidget6QFlagsIN2Qt10WindowTypeEE
   fun:_ZN3gui6window21size_restoring_windowI11QMainWindowEC2ERKSsP7QWidget
   fun:_ZN3gui6window8house_qtC1Ev
   fun:_ZN3gui12house_app_qt5startEv
   fun:_ZN17app_functionality8house_qt3runEv
   fun:_Z7do_mainRiPPc
   fun:main
}
{
   <insert_a_suppression_name_here>
   Memcheck:Leak
   fun:malloc
   fun:_Z7qMallocj
   fun:_ZN7QString17fromLatin1_helperEPKci
   fun:_ZN7QString16fromAscii_helperEPKci
   fun:_ZN7QStringC1EPKc
   fun:_ZN3gui6window8house_qt15_create_actionsEv
   fun:_ZN3gui6window8house_qtC1Ev
   fun:_ZN3gui12house_app_qt5startEv
   fun:_ZN17app_functionality8house_qt3runEv
   fun:_Z7do_mainRiPPc
   fun:main
}
{
   <insert_a_suppression_name_here>
   Memcheck:Leak
   fun:malloc
   fun:_Z7qMallocj
   fun:_ZN7QString17fromLatin1_helperEPKci
   fun:_ZN7QString16fromAscii_helperEPKci
   fun:_ZN7QStringC1EPKc
   fun:_ZN3gui4view8users_qt15_create_actionsEv
   fun:_ZN3gui4view8users_qtC1EP7QWidgetRKSs
   fun:_ZN3gui6window8house_qt15_create_widgetsEv
   fun:_ZN3gui6window8house_qtC1Ev
   fun:_ZN3gui12house_app_qt5startEv
   fun:_ZN17app_functionality8house_qt3runEv
   fun:_Z7do_mainRiPPc
}
{
   <insert_a_suppression_name_here>
   Memcheck:Leak
   fun:malloc
   fun:_Z7qMallocj
   fun:_ZN7QString17fromLatin1_helperEPKci
   fun:_ZN7QString16fromAscii_helperEPKci
   fun:_ZN7QStringC1EPKc
   fun:_ZN3gui4view8rooms_qt14_create_headerEv
   fun:_ZN3gui4view8rooms_qtC1EP7QWidget
   fun:_ZN3gui6window8house_qt15_create_widgetsEv
   fun:_ZN3gui6window8house_qtC1Ev
   fun:_ZN3gui12house_app_qt5startEv
   fun:_ZN17app_functionality8house_qt3runEv
   fun:_Z7do_mainRiPPc
}
{
   <insert_a_suppression_name_here>
   Memcheck:Leak
   fun:malloc
   fun:_Z7qMallocj
   fun:_ZN7QString17fromLatin1_helperEPKci
   fun:_ZN7QString16fromAscii_helperEPKci
   fun:_ZN7QStringC1EPKc
   fun:_ZN3gui4view8rooms_qt14_create_headerEv
   fun:_ZN3gui4view8rooms_qtC1EP7QWidget
   fun:_ZN3gui6window8house_qt15_create_widgetsEv
   fun:_ZN3gui6window8house_qtC1Ev
   fun:_ZN3gui12house_app_qt5startEv
   fun:_ZN17app_functionality8house_qt3runEv
   fun:_Z7do_mainRiPPc
}
{
   <insert_a_suppression_name_here>
   Memcheck:Leak
   fun:_Znwj
   fun:_ZNSs4_Rep9_S_createEjjRKSaIcE
   fun:_ZNSs9_M_mutateEjjj
   fun:_ZNSs15_M_replace_safeEjjPKcj
   fun:_ZNSs6assignEPKcj
   fun:_ZNSsaSEPKc
   fun:_ZN3gui6window8house_qt18handle_ctz_messageEP7message
   fun:_ZN3gui6window8house_qt14handle_messageEP7message
   fun:_ZN3gui12house_app_qt17_handle_messengerEv
   fun:_ZN3gui12house_app_qt5eventEP6QEvent
   fun:_ZN19QApplicationPrivate13notify_helperEP7QObjectP6QEvent
   fun:_ZN12QApplication6notifyEP7QObjectP6QEvent
}
{
   <insert_a_suppression_name_here>
   Memcheck:Leak
   fun:malloc
   fun:_Z7qMallocj
   fun:_ZN7QString17fromLatin1_helperEPKci
   fun:_ZN7QString16fromAscii_helperEPKci
   fun:_ZN7QStringC1EPKc
   fun:_ZN3gui6window8house_qt15_create_actionsEv
   fun:_ZN3gui6window8house_qtC1Ev
   fun:_ZN3gui12house_app_qt5startEv
   fun:_ZN17app_functionality8house_qt3runEv
   fun:_Z7do_mainRiPPc
   fun:main
}
{
   <insert_a_suppression_name_here>
   Memcheck:Leak
   fun:malloc
   fun:_Z7qMallocj
   fun:_ZN7QString17fromLatin1_helperEPKci
   fun:_ZN7QString16fromAscii_helperEPKci
   fun:_ZN7QStringC1EPKc
   fun:_ZN3gui4view8users_qt15_create_actionsEv
   fun:_ZN3gui4view8users_qtC1EP7QWidgetRKSs
   fun:_ZN3gui6window8house_qt15_create_widgetsEv
   fun:_ZN3gui6window8house_qtC1Ev
   fun:_ZN3gui12house_app_qt5startEv
   fun:_ZN17app_functionality8house_qt3runEv
   fun:_Z7do_mainRiPPc
}
{
   <insert_a_suppression_name_here>
   Memcheck:Leak
   fun:_Znwj
   fun:_ZN14QLayoutPrivate16createSpacerItemEPK7QLayoutiiN11QSizePolicy6PolicyES4_
   fun:_ZN10QBoxLayout13insertSpacingEii
   fun:_ZN10QBoxLayout10addSpacingEi
   fun:_ZN10QStatusBar8reformatEv
   fun:_ZN10QStatusBar18setSizeGripEnabledEb
   fun:_ZN10QStatusBarC1EP7QWidget
   fun:_ZNK11QMainWindow9statusBarEv
   fun:_ZN3gui6window8house_qt14_update_statusEv
   fun:_ZN3gui6window8house_qtC1Ev
   fun:_ZN3gui12house_app_qt5startEv
   fun:_ZN17app_functionality8house_qt3runEv
}
{
   <insert_a_suppression_name_here>
   Memcheck:Leak
   fun:_Znwj
   fun:_ZN14QLayoutPrivate16createSpacerItemEPK7QLayoutiiN11QSizePolicy6PolicyES4_
   fun:_ZN10QBoxLayout13insertSpacingEii
   fun:_ZN10QBoxLayout10addSpacingEi
   fun:_ZN10QStatusBar8reformatEv
   fun:_ZN10QStatusBar18setSizeGripEnabledEb
   fun:_ZN10QStatusBarC1EP7QWidget
   fun:_ZNK11QMainWindow9statusBarEv
   fun:_ZN3gui6window8house_qt14_update_statusEv
   fun:_ZN3gui6window8house_qtC1Ev
   fun:_ZN3gui12house_app_qt5startEv
   fun:_ZN17app_functionality8house_qt3runEv
}
{
   <insert_a_suppression_name_here>
   Memcheck:Leak
   fun:_Znwj
   fun:_ZN14QLayoutPrivate16createSpacerItemEPK7QLayoutiiN11QSizePolicy6PolicyES4_
   fun:_ZN10QBoxLayout13insertStretchEii
   fun:_ZN10QBoxLayout10addStretchEi
   fun:_ZN10QStatusBar8reformatEv
   fun:_ZN10QStatusBar18setSizeGripEnabledEb
   fun:_ZN10QStatusBarC1EP7QWidget
   fun:_ZNK11QMainWindow9statusBarEv
   fun:_ZN3gui6window8house_qt14_update_statusEv
   fun:_ZN3gui6window8house_qtC1Ev
   fun:_ZN3gui12house_app_qt5startEv
   fun:_ZN17app_functionality8house_qt3runEv
}
{
   <insert_a_suppression_name_here>
   Memcheck:Leak
   fun:_Znwj
   fun:_ZN14QLayoutPrivate16createSpacerItemEPK7QLayoutiiN11QSizePolicy6PolicyES4_
   fun:_ZN10QBoxLayout8addStrutEi
   fun:_ZN10QStatusBar8reformatEv
   fun:_ZN10QStatusBar18setSizeGripEnabledEb
   fun:_ZN10QStatusBarC1EP7QWidget
   fun:_ZNK11QMainWindow9statusBarEv
   fun:_ZN3gui6window8house_qt14_update_statusEv
   fun:_ZN3gui6window8house_qtC1Ev
   fun:_ZN3gui12house_app_qt5startEv
   fun:_ZN17app_functionality8house_qt3runEv
   fun:_Z7do_mainRiPPc
}
{
   <insert_a_suppression_name_here>
   Memcheck:Leak
   fun:_Znwj
   fun:_ZN14QLayoutPrivate16createSpacerItemEPK7QLayoutiiN11QSizePolicy6PolicyES4_
   fun:_ZN10QBoxLayout13insertSpacingEii
   fun:_ZN10QBoxLayout10addSpacingEi
   fun:_ZN10QStatusBar8reformatEv
   fun:_ZN10QStatusBar18setSizeGripEnabledEb
   fun:_ZN10QStatusBarC1EP7QWidget
   fun:_ZNK11QMainWindow9statusBarEv
   fun:_ZN3gui6window8house_qt14_update_statusEv
   fun:_ZN3gui6window8house_qtC1Ev
   fun:_ZN3gui12house_app_qt5startEv
   fun:_ZN17app_functionality8house_qt3runEv
}
{
   <insert_a_suppression_name_here>
   Memcheck:Leak
   fun:malloc
   fun:_Z7qMallocj
   fun:_ZN7QString17fromLatin1_helperEPKci
   fun:_ZN7QString16fromAscii_helperEPKci
   fun:_ZN7QStringC1EPKc
   fun:_ZN3gui4view8users_qt15_add_group_itemERNS1_12_parent_itemEi
   fun:_ZN3gui4view8users_qt32_reserve_place_for_item_in_groupEi
   fun:_ZN3gui4view8users_qt14_add_user_itemEPNS0_12user_item_qtEi
   fun:_ZN3gui4view8users_qt9_new_userERKN11chat_gaming4userEi
   fun:_ZN3gui4view8users_qt12_update_userERKN11chat_gaming4userEi
   fun:_ZN3gui4view8users_qt12_update_userERKN11chat_gaming8user_keyEi
   fun:_ZN3gui4view8users_qt14handle_messageEP7message
}
{
   <insert_a_suppression_name_here>
   Memcheck:Leak
   fun:_Znwj
   fun:_ZN15QtSharedPointer20ExternalRefCountData9getAndRefEPK7QObject
   fun:_ZN18QPropertyAnimation15setTargetObjectEP7QObject
   fun:_ZN18QPropertyAnimationC1EP7QObjectRK10QByteArrayS1_
   fun:_ZN15QWidgetAnimator7animateEP7QWidgetRK5QRectb
   fun:_ZN18QToolBarAreaLayout5applyEb
   fun:_ZN22QMainWindowLayoutState5applyEb
   fun:_ZN17QMainWindowLayout10applyStateER22QMainWindowLayoutStateb
   fun:_ZN17QMainWindowLayout11setGeometryERK5QRect
   fun:_ZN14QLayoutPrivate8doResizeERK5QSize
   fun:_ZN7QLayout8activateEv
   fun:_ZN7QWidget10setVisibleEb
}
{
   <insert_a_suppression_name_here>
   Memcheck:Leak
   fun:malloc
   fun:_Z7qMallocj
   fun:_ZN7QString17fromLatin1_helperEPKci
   fun:_ZN7QString16fromAscii_helperEPKci
   fun:_ZN7QStringC1EPKc
   fun:_ZN3gui6window8house_qt15_create_actionsEv
   fun:_ZN3gui6window8house_qtC1Ev
   fun:_ZN3gui12house_app_qt5startEv
   fun:_ZN17app_functionality8house_qt3runEv
   fun:_Z7do_mainRiPPc
   fun:main
}
{
   <insert_a_suppression_name_here>
   Memcheck:Leak
   fun:malloc
   fun:_Z7qMallocj
   fun:_ZN7QString17fromLatin1_helperEPKci
   fun:_ZN7QString16fromAscii_helperEPKci
   fun:_ZN7QStringC1EPKc
   fun:_ZN3gui4view8users_qt15_create_actionsEv
   fun:_ZN3gui4view8users_qtC1EP7QWidgetRKSs
   fun:_ZN3gui6window8house_qt15_create_widgetsEv
   fun:_ZN3gui6window8house_qtC1Ev
   fun:_ZN3gui12house_app_qt5startEv
   fun:_ZN17app_functionality8house_qt3runEv
   fun:_Z7do_mainRiPPc
}
{
   <insert_a_suppression_name_here>
   Memcheck:Leak
   fun:realloc
   fun:_Z8qReallocPvj
   fun:_ZN9QListData7reallocEi
   fun:_ZN9QListData6appendEi
   fun:_ZN9QListData6appendEv
   fun:_ZN5QListIP7QActionE6appendERKS1_
   fun:_ZN12QActionGroup9addActionEP7QAction
   fun:_ZN3gui6window8house_qt15_create_actionsEv
   fun:_ZN3gui6window8house_qtC1Ev
   fun:_ZN3gui12house_app_qt5startEv
   fun:_ZN17app_functionality8house_qt3runEv
   fun:_Z7do_mainRiPPc
}
{
   <insert_a_suppression_name_here>
   Memcheck:Leak
   fun:realloc
   fun:_Z8qReallocPvj
   fun:_ZN9QListData7reallocEi
   fun:_ZN9QListData6appendEi
   fun:_ZN9QListData6appendEv
   fun:_ZN9QListData6insertEi
   fun:_ZN7QWidget12insertActionEP7QActionS1_
   fun:_ZN7QWidget9addActionEP7QAction
   fun:_ZN3gui6window8house_qt16_create_toolbarsEv
   fun:_ZN3gui6window8house_qtC1Ev
   fun:_ZN3gui12house_app_qt5startEv
   fun:_ZN17app_functionality8house_qt3runEv
}
{
   <insert_a_suppression_name_here>
   Memcheck:Leak
   fun:realloc
   fun:_Z8qReallocPvj
   fun:_ZN9QListData7reallocEi
   fun:_ZN9QListData6appendEi
   fun:_ZN9QListData6appendEv
   fun:_ZN9QListData6insertEi
   fun:_ZN14QToolBarLayout12insertActionEiP7QAction
   fun:_ZN8QToolBar11actionEventEP12QActionEvent
   fun:_ZN7QWidget5eventEP6QEvent
   fun:_ZN8QToolBar5eventEP6QEvent
   fun:_ZN19QApplicationPrivate13notify_helperEP7QObjectP6QEvent
   fun:_ZN12QApplication6notifyEP7QObjectP6QEvent
}
{
   <insert_a_suppression_name_here>
   Memcheck:Leak
   fun:realloc
   fun:_Z8qReallocPvj
   fun:_ZN9QListData7reallocEi
   fun:_ZN9QListData6appendEi
   fun:_ZN9QListData6appendEv
   fun:_ZN5QListIP7QObjectE6appendERKS1_
   fun:_ZN14QObjectPrivate16setParent_helperEP7QObject
   fun:_ZN7QObject9setParentEPS_
   fun:_ZN7QObjectC2ER14QObjectPrivatePS_
   fun:_ZN12QTextControlC2EP7QObject
   fun:_ZN16QTextEditPrivate4initERK7QString
   fun:_ZN9QTextEditC2ER16QTextEditPrivateP7QWidget
}
{
   <insert_a_suppression_name_here>
   Memcheck:Leak
   fun:malloc
   fun:_Z7qMallocj
   fun:_ZN11QVectorData8allocateEii
   fun:_ZN7QVectorI11QTextFormatE7reallocEii
   fun:_ZN7QVectorI11QTextFormatE6appendERKS0_
   fun:_ZN21QTextFormatCollection14indexForFormatERK11QTextFormat
   fun:_ZN20QTextDocumentPrivate4initEv
   fun:_ZN20QTextDocumentPrivate5clearEv
   fun:_ZN13QTextDocument5clearEv
   fun:_ZN19QTextControlPrivate10setContentEN2Qt10TextFormatERK7QStringP13QTextDocument
   fun:_ZN19QTextControlPrivate4initEN2Qt10TextFormatERK7QStringP13QTextDocument
   fun:_ZN12QTextControlC2EP7QObject
}
{
   <insert_a_suppression_name_here>
   Memcheck:Leak
   fun:realloc
   fun:_Z8qReallocPvj
   fun:_ZN9QListData7reallocEi
   fun:_ZN9QListData6appendEi
   fun:_ZN9QListData6appendEv
   fun:_ZN5QListIP7QActionE6appendERKS1_
   fun:_ZN12QActionGroup9addActionEP7QAction
   fun:_ZN3gui4view8users_qt20_create_context_menuEv
   fun:_ZN3gui4view8users_qtC1EP7QWidgetRKSs
   fun:_ZN3gui6window8house_qt15_create_widgetsEv
   fun:_ZN3gui6window8house_qtC1Ev
   fun:_ZN3gui12house_app_qt5startEv
}
{
   <insert_a_suppression_name_here>
   Memcheck:Leak
   fun:realloc
   fun:_Z8qReallocPvj
   fun:_ZN9QListData7reallocEi
   fun:_ZN9QListData6appendEi
   fun:_ZN9QListData6appendEv
   fun:_ZN9QListData6insertEi
   fun:_ZN7QWidget12insertActionEP7QActionS1_
   fun:_ZN7QWidget10addActionsE5QListIP7QActionE
   fun:_ZN3gui4view8users_qt20_create_context_menuEv
   fun:_ZN3gui4view8users_qtC1EP7QWidgetRKSs
   fun:_ZN3gui6window8house_qt15_create_widgetsEv
   fun:_ZN3gui6window8house_qtC1Ev
}
{
   <insert_a_suppression_name_here>
   Memcheck:Leak
   fun:realloc
   fun:_Z8qReallocPvj
   fun:_ZN9QListData7reallocEi
   fun:_ZN9QListData6appendEi
   fun:_ZN9QListData6appendEv
   fun:_ZN9QListData6insertEi
   fun:_ZN7QWidget12insertActionEP7QActionS1_
   fun:_ZN7QWidget9addActionEP7QAction
   fun:_ZN3gui4view8users_qt20_create_context_menuEv
   fun:_ZN3gui4view8users_qtC1EP7QWidgetRKSs
   fun:_ZN3gui6window8house_qt15_create_widgetsEv
   fun:_ZN3gui6window8house_qtC1Ev
}
{
   <insert_a_suppression_name_here>
   Memcheck:Leak
   fun:realloc
   fun:_Z8qReallocPvj
   fun:_ZN9QListData7reallocEi
   fun:_ZN9QListData6appendEi
   fun:_ZN9QListData6appendEv
   fun:_ZN5QListI8QVariantE6appendERKS0_
   fun:_ZN10QTreeModel14setColumnCountEi
   fun:_ZN11QTreeWidget14setColumnCountEi
   fun:_ZN3gui4view8rooms_qtC1EP7QWidget
   fun:_ZN3gui6window8house_qt15_create_widgetsEv
   fun:_ZN3gui6window8house_qtC1Ev
   fun:_ZN3gui12house_app_qt5startEv
}
{
   <insert_a_suppression_name_here>
   Memcheck:Leak
   fun:realloc
   fun:_Z8qReallocPvj
   fun:_ZN9QListData7reallocEi
   fun:_ZN9QListData6appendEi
   fun:_ZN9QListData6appendEv
   fun:_ZN5QListIP7QObjectE6appendERKS1_
   fun:_ZN14QObjectPrivate16setParent_helperEP7QObject
   fun:_ZN14QWidgetPrivate13setParent_sysEP7QWidget6QFlagsIN2Qt10WindowTypeEE
   fun:_ZN7QWidget9setParentEPS_6QFlagsIN2Qt10WindowTypeEE
   fun:_ZN14QWidgetPrivate4initEP7QWidget6QFlagsIN2Qt10WindowTypeEE
   fun:_ZN7QWidgetC2ER14QWidgetPrivatePS_6QFlagsIN2Qt10WindowTypeEE
   fun:_ZN15QSplitterHandleC1EN2Qt11OrientationEP9QSplitter
}
{
   <insert_a_suppression_name_here>
   Memcheck:Leak
   fun:realloc
   fun:_Z8qReallocPvj
   fun:_ZN9QListData7reallocEi
   fun:_ZN9QListData7prependEv
   fun:_ZN7QObject18installEventFilterEPS_
   fun:_ZN16QSizeGripPrivate4initEv
   fun:_ZN9QSizeGripC1EP7QWidget
   fun:_ZN10QStatusBar18setSizeGripEnabledEb
   fun:_ZN10QStatusBarC1EP7QWidget
   fun:_ZNK11QMainWindow9statusBarEv
   fun:_ZN3gui6window8house_qt14_update_statusEv
   fun:_ZN3gui6window8house_qtC1Ev
}
{
   <insert_a_suppression_name_here>
   Memcheck:Leak
   fun:realloc
   fun:_Z8qReallocPvj
   fun:_ZN9QListData7reallocEi
   fun:_ZN9QListData6appendEi
   fun:_ZN9QListData6appendEv
   fun:_ZN9QListData6insertEi
   fun:_ZN15QTreeWidgetItem11insertChildEiPS_
   fun:_ZN15QTreeWidgetItem8addChildEPS_
   fun:_ZN3gui4view8users_qt18_add_user_to_groupEP15QTreeWidgetItemPNS0_12user_item_qtE
   fun:_ZN3gui4view8users_qt14_add_user_itemEPNS0_12user_item_qtEi
   fun:_ZN3gui4view8users_qt9_new_userERKN11chat_gaming4userEi
   fun:_ZN3gui4view8users_qt12_update_userERKN11chat_gaming4userEi
}
{
   <insert_a_suppression_name_here>
   Memcheck:Leak
   fun:malloc
   fun:_Z7qMallocj
   fun:_ZN9QListData6detachEi
   fun:_ZN5QListI19QItemSelectionRangeE13detach_helperEi
   fun:_ZN5QListI19QItemSelectionRangeE13detach_helperEv
   fun:_ZN26QItemSelectionModelPrivate27_q_columnsAboutToBeInsertedERK11QModelIndexii
   fun:_ZN19QItemSelectionModel11qt_metacallEN11QMetaObject4CallEiPPv
   fun:_ZN11QMetaObject8metacallEP7QObjectNS_4CallEiPPv
   fun:_ZN11QMetaObject8activateEP7QObjectPKS_iPPv
   fun:_ZN18QAbstractItemModel24columnsAboutToBeInsertedERK11QModelIndexii
   fun:_ZN18QAbstractItemModel18beginInsertColumnsERK11QModelIndexii
   fun:_ZN10QTreeModel14setColumnCountEi
}
{
   <insert_a_suppression_name_here>
   Memcheck:Leak
   fun:_Znwj
   fun:_ZN5QListI22QToolBarAreaLayoutItemE6appendERKS0_
   fun:_ZN18QToolBarAreaLayout12restoreStateER11QDataStreamRK5QListIP8QToolBarEhbb
   fun:_ZN22QMainWindowLayoutState12restoreStateER11QDataStreamRKS_
   fun:_ZN17QMainWindowLayout12restoreStateER11QDataStream
   fun:_ZN11QMainWindow12restoreStateERK10QByteArrayi
   fun:_ZN3gui6window21size_restoring_windowI11QMainWindowE4showEv
   fun:_ZN3gui12house_app_qt5startEv
   fun:_ZN17app_functionality8house_qt3runEv
   fun:_Z7do_mainRiPPc
   fun:main
}
{
   <insert_a_suppression_name_here>
   Memcheck:Leak
   fun:_Znwj
   fun:_ZN15QTreeWidgetItemC2Ei
   fun:_ZN3gui4view12user_item_qtC1Ev
   fun:_ZN3gui4view8users_qt9_new_userERKN11chat_gaming4userEi
   fun:_ZN3gui4view8users_qt12_update_userERKN11chat_gaming4userEi
   fun:_ZN3gui4view8users_qt12_update_userERKN11chat_gaming8user_keyEi
   fun:_ZN3gui4view8users_qt14handle_messageEP7message
   fun:_ZN3gui6window8house_qt14handle_messageEP7message
   fun:_ZN3gui12house_app_qt17_handle_messengerEv
   fun:_ZN3gui12house_app_qt5eventEP6QEvent
   fun:_ZN19QApplicationPrivate13notify_helperEP7QObjectP6QEvent
   fun:_ZN12QApplication6notifyEP7QObjectP6QEvent
}
{
   <insert_a_suppression_name_here>
   Memcheck:Leak
   fun:malloc
   fun:_Z7qMallocj
   fun:_ZN11QVectorData8allocateEii
   fun:_ZN7QVectorIS_I15QWidgetItemDataEE7reallocEii
   fun:_ZN7QVectorIS_I15QWidgetItemDataEE6resizeEi
   fun:_ZN15QTreeWidgetItem7setDataEiiRK8QVariant
   fun:_ZN15QTreeWidgetItem7setIconEiRK5QIcon
   fun:_ZN3gui4view12user_item_qt18resolve_user_stateEv
   fun:_ZN3gui4view8users_qt9_new_userERKN11chat_gaming4userEi
   fun:_ZN3gui4view8users_qt12_update_userERKN11chat_gaming4userEi
   fun:_ZN3gui4view8users_qt12_update_userERKN11chat_gaming8user_keyEi
   fun:_ZN3gui4view8users_qt14handle_messageEP7message
}
{
   <insert_a_suppression_name_here>
   Memcheck:Leak
   fun:malloc
   fun:_Z7qMallocj
   fun:_ZN9QListData6detachEi
   fun:_ZN5QListI19QItemSelectionRangeE13detach_helperEi
   fun:_ZN5QListI19QItemSelectionRangeE13detach_helperEv
   fun:_ZN26QItemSelectionModelPrivate24_q_rowsAboutToBeInsertedERK11QModelIndexii
   fun:_ZN19QItemSelectionModel11qt_metacallEN11QMetaObject4CallEiPPv
   fun:_ZN11QMetaObject8metacallEP7QObjectNS_4CallEiPPv
   fun:_ZN11QMetaObject8activateEP7QObjectPKS_iPPv
   fun:_ZN18QAbstractItemModel21rowsAboutToBeInsertedERK11QModelIndexii
   fun:_ZN18QAbstractItemModel15beginInsertRowsERK11QModelIndexii
   fun:_ZN10QTreeModel16beginInsertItemsEP15QTreeWidgetItemii
}
{
   <insert_a_suppression_name_here>
   Memcheck:Leak
   fun:malloc
   fun:_Z7qMallocj
   fun:_ZN7QString17fromLatin1_helperEPKci
   fun:_ZN7QString16fromAscii_helperEPKci
   fun:_ZN7QStringC1EPKc
   fun:_ZN3gui4view8users_qt15_create_actionsEv
   fun:_ZN3gui4view8users_qtC1EP7QWidgetRKSs
   fun:_ZN3gui6window8house_qt15_create_widgetsEv
   fun:_ZN3gui6window8house_qtC1Ev
   fun:_ZN3gui12house_app_qt5startEv
   fun:_ZN17app_functionality8house_qt3runEv
   fun:_Z7do_mainRiPPc
}
{
   <insert_a_suppression_name_here>
   Memcheck:Leak
   fun:malloc
   fun:_Z7qMallocj
   fun:_ZN7QString17fromLatin1_helperEPKci
   fun:_ZN7QString16fromAscii_helperEPKci
   fun:_ZN7QStringC1EPKc
   fun:_ZN3gui6window8house_qt15_create_actionsEv
   fun:_ZN3gui6window8house_qtC1Ev
   fun:_ZN3gui12house_app_qt5startEv
   fun:_ZN17app_functionality8house_qt3runEv
   fun:_Z7do_mainRiPPc
   fun:main
}
{
   <insert_a_suppression_name_here>
   Memcheck:Leak
   fun:malloc
   fun:_Z7qMallocj
   fun:_ZN11QVectorData8allocateEii
   fun:_ZN7QVectorIS_I15QWidgetItemDataEE7reallocEii
   fun:_ZN7QVectorIS_I15QWidgetItemDataEE6resizeEi
   fun:_ZN10QTreeModel14setColumnCountEi
   fun:_ZN11QTreeWidget14setColumnCountEi
   fun:_ZN3gui4view8rooms_qtC1EP7QWidget
   fun:_ZN3gui6window8house_qt15_create_widgetsEv
   fun:_ZN3gui6window8house_qtC1Ev
   fun:_ZN3gui12house_app_qt5startEv
   fun:_ZN17app_functionality8house_qt3runEv
}
{
   <insert_a_suppression_name_here>
   Memcheck:Leak
   fun:_Znwj
   fun:_ZN26QWidgetBackingStoreTracker6createEP7QWidget
   fun:_ZN7QWidget6createEmbb
   fun:_ZN7QWidget10setVisibleEb
   fun:_ZN7QWidget4showEv
   fun:_ZN3gui6window21size_restoring_windowI11QMainWindowE4showEv
   fun:_ZN3gui12house_app_qt5startEv
   fun:_ZN17app_functionality8house_qt3runEv
   fun:_Z7do_mainRiPPc
   fun:main
}
{
   <insert_a_suppression_name_here>
   Memcheck:Leak
   fun:_Znwj
   fun:_ZNK7QRegion4copyEv
   fun:_ZN7QRegion6detachEv
   fun:_ZN7QRegion9translateEii
   fun:_ZNK14QWidgetPrivate17getOpaqueChildrenEv
   fun:_ZNK14QWidgetPrivate17getOpaqueChildrenEv
   fun:_ZNK14QWidgetPrivate17getOpaqueChildrenEv
   fun:_ZNK14QWidgetPrivate17getOpaqueChildrenEv
   fun:_ZNK14QWidgetPrivate22subtractOpaqueChildrenER7QRegionRK5QRect
   fun:_ZN14QWidgetPrivate10drawWidgetEP12QPaintDeviceRK7QRegionRK6QPointiP8QPainterP19QWidgetBackingStore
   fun:_ZN19QWidgetBackingStore4syncEv
   fun:_ZN19QWidgetBackingStore4syncEP7QWidgetRK7QRegion
}
{
   <insert_a_suppression_name_here>
   Memcheck:Leak
   fun:_Znwj
   fun:_ZNK7QRegion4copyEv
   fun:_ZN7QRegion6detachEv
   fun:_ZN7QRegion9translateEii
   fun:_ZNK7QRegion10translatedEii
   fun:_ZN14QWidgetPrivate10drawWidgetEP12QPaintDeviceRK7QRegionRK6QPointiP8QPainterP19QWidgetBackingStore
   fun:_ZN14QWidgetPrivate22paintSiblingsRecursiveEP12QPaintDeviceRK5QListIP7QObjectEiRK7QRegionRK6QPointiP8QPainterP19QWidgetBackingStore
   fun:_ZN14QWidgetPrivate10drawWidgetEP12QPaintDeviceRK7QRegionRK6QPointiP8QPainterP19QWidgetBackingStore
   fun:_ZN14QWidgetPrivate22paintSiblingsRecursiveEP12QPaintDeviceRK5QListIP7QObjectEiRK7QRegionRK6QPointiP8QPainterP19QWidgetBackingStore
   fun:_ZN14QWidgetPrivate10drawWidgetEP12QPaintDeviceRK7QRegionRK6QPointiP8QPainterP19QWidgetBackingStore
   fun:_ZN19QWidgetBackingStore4syncEv
   fun:_ZN14QWidgetPrivate16syncBackingStoreEv
}
{
   <insert_a_suppression_name_here>
   Memcheck:Leak
   fun:_Znwj
   fun:_ZNK9netcomgrp11centralized4node9duplicateEv
   fun:_ZN11chat_gaming8user_key4nodeEPKN9netcomgrp4nodeE
   fun:_ZN11chat_gaming8user_keyaSERKS0_
   fun:_ZN10multi_feed4itemIN11chat_gaming8user_keyEE8set_feedERKS2_i
   fun:_ZN3gui4view12user_item_qt4userERKN11chat_gaming8user_keyEi
   fun:_ZN3gui4view8users_qt9_new_userERKN11chat_gaming4userEi
   fun:_ZN3gui4view8users_qt12_update_userERKN11chat_gaming4userEi
   fun:_ZN3gui4view8users_qt12_update_userERKN11chat_gaming8user_keyEi
   fun:_ZN3gui4view8users_qt14handle_messageEP7message
   fun:_ZN3gui6window8house_qt14handle_messageEP7message
   fun:_ZN3gui12house_app_qt17_handle_messengerEv
}
{
   <insert_a_suppression_name_here>
   Memcheck:Leak
   fun:_Znwj
   fun:_ZNK9netcomgrp11centralized4node9duplicateEv
   fun:_ZN11chat_gaming8user_key4nodeEPKN9netcomgrp4nodeE
   fun:_ZN11chat_gaming8user_keyaSERKS0_
   fun:_ZN10multi_feed4itemIN11chat_gaming8user_keyEE8set_feedERKS2_i
   fun:_ZN3gui4view12user_item_qt4userERKN11chat_gaming8user_keyEi
   fun:_ZN3gui4view8users_qt12_update_userERKN11chat_gaming4userEi
   fun:_ZN3gui4view8users_qt12_update_userERKN11chat_gaming8user_keyEi
   fun:_ZN3gui4view8users_qt14handle_messageEP7message
   fun:_ZN3gui6window8house_qt14handle_messageEP7message
   fun:_ZN3gui12house_app_qt17_handle_messengerEv
   fun:_ZN3gui12house_app_qt5eventEP6QEvent
}
{
   <insert_a_suppression_name_here>
   Memcheck:Leak
   fun:_Znwj
   fun:_ZN7QRegionC1ERK5QRectNS_10RegionTypeE
   fun:_ZNK14QWidgetPrivate17getOpaqueChildrenEv
   fun:_ZNK14QWidgetPrivate17getOpaqueChildrenEv
   fun:_ZNK14QWidgetPrivate17getOpaqueChildrenEv
   fun:_ZNK14QWidgetPrivate17getOpaqueChildrenEv
   fun:_ZNK14QWidgetPrivate22subtractOpaqueChildrenER7QRegionRK5QRect
   fun:_ZN14QWidgetPrivate10drawWidgetEP12QPaintDeviceRK7QRegionRK6QPointiP8QPainterP19QWidgetBackingStore
   fun:_ZN19QWidgetBackingStore4syncEv
   fun:_ZN14QWidgetPrivate16syncBackingStoreEv
   fun:_ZN7QWidget5eventEP6QEvent
   fun:_ZN11QMainWindow5eventEP6QEvent
}
{
   <insert_a_suppression_name_here>
   Memcheck:Leak
   fun:_Znwj
   fun:_ZNK7QRegion4copyEv
   fun:_ZN7QRegion6detachEv
   fun:_ZN7QRegion9translateEii
   fun:_ZNK14QWidgetPrivate17getOpaqueChildrenEv
   fun:_ZNK14QWidgetPrivate22subtractOpaqueChildrenER7QRegionRK5QRect
   fun:_ZN14QWidgetPrivate10drawWidgetEP12QPaintDeviceRK7QRegionRK6QPointiP8QPainterP19QWidgetBackingStore
   fun:_ZN19QWidgetBackingStore4syncEv
   fun:_ZN14QWidgetPrivate16syncBackingStoreEv
   fun:_ZN7QWidget5eventEP6QEvent
   fun:_ZN11QMainWindow5eventEP6QEvent
   fun:_ZN19QApplicationPrivate13notify_helperEP7QObjectP6QEvent
}
{
   <insert_a_suppression_name_here>
   Memcheck:Leak
   fun:malloc
   fun:_Z7qMallocj
   fun:_ZN7QString17fromLatin1_helperEPKci
   fun:_ZN7QString16fromAscii_helperEPKci
   fun:_ZN7QStringC1EPKc
   fun:_ZN3gui6window8house_qt16_create_toolbarsEv
   fun:_ZN3gui6window8house_qtC1Ev
   fun:_ZN3gui12house_app_qt5startEv
   fun:_ZN17app_functionality8house_qt3runEv
   fun:_Z7do_mainRiPPc
   fun:main
}
{
   <insert_a_suppression_name_here>
   Memcheck:Leak
   fun:malloc
   fun:_Z7qMallocj
   fun:_ZN7QString17fromLatin1_helperEPKci
   fun:_ZN7QString16fromAscii_helperEPKci
   fun:_ZN7QStringC1EPKc
   fun:_ZN3gui6window8house_qt16_create_toolbarsEv
   fun:_ZN3gui6window8house_qtC1Ev
   fun:_ZN3gui12house_app_qt5startEv
   fun:_ZN17app_functionality8house_qt3runEv
   fun:_Z7do_mainRiPPc
   fun:main
}
{
   <insert_a_suppression_name_here>
   Memcheck:Leak
   fun:realloc
   fun:_Z8qReallocPvj
   fun:_ZN9QListData7reallocEi
   fun:_ZN9QListData6appendEi
   fun:_ZN9QListData6appendEv
   fun:_ZN9QListData6insertEi
   fun:_ZN7QWidget12insertActionEP7QActionS1_
   fun:_ZN7QWidget9addActionEP7QAction
   fun:_ZN3gui6window8house_qt13_create_menusEv
   fun:_ZN3gui6window8house_qtC1Ev
   fun:_ZN3gui12house_app_qt5startEv
   fun:_ZN17app_functionality8house_qt3runEv
}
{
   <insert_a_suppression_name_here>
   Memcheck:Leak
   fun:malloc
   fun:_Z7qMallocj
   fun:_ZN7QString17fromLatin1_helperEPKci
   fun:_ZN7QString16fromAscii_helperEPKci
   fun:_ZN7QStringC1EPKc
   fun:_ZN3gui4view8users_qt15_create_actionsEv
   fun:_ZN3gui4view8users_qtC1EP7QWidgetRKSs
   fun:_ZN3gui6window8house_qt15_create_widgetsEv
   fun:_ZN3gui6window8house_qtC1Ev
   fun:_ZN3gui12house_app_qt5startEv
   fun:_ZN17app_functionality8house_qt3runEv
   fun:_Z7do_mainRiPPc
}
{
   <insert_a_suppression_name_here>
   Memcheck:Leak
   fun:malloc
   fun:_Z7qMallocj
   fun:_ZN9QListData6detachEi
   fun:_ZN5QListIP7QObjectE13detach_helperEi
   fun:_ZN5QListIP7QObjectE13detach_helperEv
   fun:_ZN7QWidget5raiseEv
   fun:_ZN26QAbstractScrollAreaPrivate14layoutChildrenEv
   fun:_ZN19QAbstractScrollArea18setViewportMarginsEiiii
   fun:_ZN9QTreeView16updateGeometriesEv
   fun:_ZN17QAbstractItemView11qt_metacallEN11QMetaObject4CallEiPPv
   fun:_ZN9QTreeView11qt_metacallEN11QMetaObject4CallEiPPv
   fun:_ZN11QTreeWidget11qt_metacallEN11QMetaObject4CallEiPPv
}
{
   <insert_a_suppression_name_here>
   Memcheck:Leak
   fun:realloc
   fun:_Z8qReallocPvj
   fun:_ZN11QVectorData10reallocateEPS_iii
   fun:_ZN7QVectorI5QRectE7reallocEii
   fun:_ZN7QVectorI5QRectE6insertEPS0_iRKS0_
   fun:_ZN14QRegionPrivate7prependEPK5QRect
   fun:_ZN14QRegionPrivate7prependEPKS_
   fun:_ZN7QRegionpLERKS_
   fun:_ZNK14QWidgetPrivate17getOpaqueChildrenEv
   fun:_ZNK14QWidgetPrivate17getOpaqueChildrenEv
   fun:_ZNK14QWidgetPrivate17getOpaqueChildrenEv
   fun:_ZNK14QWidgetPrivate17getOpaqueChildrenEv
}
{
   <insert_a_suppression_name_here>
   Memcheck:Leak
   fun:_Znwj
   fun:_ZN5QIcon9addPixmapERK7QPixmapNS_4ModeENS_5StateE
   fun:_ZNK12QCommonStyle26standardIconImplementationEN6QStyle14StandardPixmapEPK12QStyleOptionPK7QWidget
   fun:_ZNK13QWindowsStyle26standardIconImplementationEN6QStyle14StandardPixmapEPK12QStyleOptionPK7QWidget
   fun:_ZNK16QCleanlooksStyle26standardIconImplementationEN6QStyle14StandardPixmapEPK12QStyleOptionPK7QWidget
   fun:_ZN16QCleanlooksStyle11qt_metacallEN11QMetaObject4CallEiPPv
   fun:_ZN11QMetaObject8metacallEP7QObjectNS_4CallEiPPv
   fun:_ZNK11QMetaMethod6invokeEP7QObjectN2Qt14ConnectionTypeE22QGenericReturnArgument16QGenericArgumentS5_S5_S5_S5_S5_S5_S5_S5_S5_
   fun:_ZN11QMetaObject12invokeMethodEP7QObjectPKcN2Qt14ConnectionTypeE22QGenericReturnArgument16QGenericArgumentS7_S7_S7_S7_S7_S7_S7_S7_S7_
   fun:_ZNK6QStyle12standardIconENS_14StandardPixmapEPK12QStyleOptionPK7QWidget
   fun:_ZN17QToolBarExtension14setOrientationEN2Qt11OrientationE
   fun:_ZN17QToolBarExtensionC1EP7QWidget
}
{
   <insert_a_suppression_name_here>
   Memcheck:Leak
   fun:_Znwj
   fun:_ZN9__gnu_cxx13new_allocatorISt13_Rb_tree_nodeISt4pairIKSsPN3gui4view12user_item_qtEEEE8allocateEjPKv
   fun:_ZNSt8_Rb_treeISsSt4pairIKSsPN3gui4view12user_item_qtEESt10_Select1stIS6_ESt4lessISsESaIS6_EE11_M_get_nodeEv
   fun:_ZNSt8_Rb_treeISsSt4pairIKSsPN3gui4view12user_item_qtEESt10_Select1stIS6_ESt4lessISsESaIS6_EE14_M_create_nodeERKS6_
   fun:_ZNSt8_Rb_treeISsSt4pairIKSsPN3gui4view12user_item_qtEESt10_Select1stIS6_ESt4lessISsESaIS6_EE9_M_insertEPSt18_Rb_tree_node_baseSE_RKS6_
   fun:_ZNSt8_Rb_treeISsSt4pairIKSsPN3gui4view12user_item_qtEESt10_Select1stIS6_ESt4lessISsESaIS6_EE13insert_uniqueERKS6_
   fun:_ZNSt3mapISsPN3gui4view12user_item_qtESt4lessISsESaISt4pairIKSsS3_EEE6insertERKS8_
   fun:_ZN10multi_feed8user_mapIN3gui4view12user_item_qtEE6insertERKN11chat_gaming8user_keyEPS3_
   fun:_ZN3gui4view8users_qt9_new_userERKN11chat_gaming4userEi
   fun:_ZN3gui4view8users_qt12_update_userERKN11chat_gaming4userEi
   fun:_ZN3gui4view8users_qt12_update_userERKN11chat_gaming8user_keyEi
   fun:_ZN3gui4view8users_qt14handle_messageEP7message
}
{
   <insert_a_suppression_name_here>
   Memcheck:Leak
   fun:_Znwj
   fun:_ZN5QListI8QVariantE6appendERKS0_
   fun:_ZN10QTreeModel14setColumnCountEi
   fun:_ZN11QTreeWidget14setColumnCountEi
   fun:_ZN3gui4view8rooms_qtC1EP7QWidget
   fun:_ZN3gui6window8house_qt15_create_widgetsEv
   fun:_ZN3gui6window8house_qtC1Ev
   fun:_ZN3gui12house_app_qt5startEv
   fun:_ZN17app_functionality8house_qt3runEv
   fun:_Z7do_mainRiPPc
   fun:main
}
{
   <insert_a_suppression_name_here>
   Memcheck:Leak
   fun:malloc
   fun:_Z7qMallocj
   fun:_ZN7QString17fromLatin1_helperEPKci
   fun:_ZN7QString16fromAscii_helperEPKci
   fun:_ZN7QStringC1EPKc
   fun:_ZN3gui6window8house_qt15_create_actionsEv
   fun:_ZN3gui6window8house_qtC1Ev
   fun:_ZN3gui12house_app_qt5startEv
   fun:_ZN17app_functionality8house_qt3runEv
   fun:_Z7do_mainRiPPc
   fun:main
}
{
   <insert_a_suppression_name_here>
   Memcheck:Leak
   fun:malloc
   fun:_Z7qMallocj
   fun:_ZN7QString17fromLatin1_helperEPKci
   fun:_ZN16QSplitterPrivate12insertWidgetEiP7QWidget
   fun:_ZN16QSplitterPrivate19insertWidget_helperEiP7QWidgetb
   fun:_ZN9QSplitter12insertWidgetEiP7QWidget
   fun:_ZN9QSplitter9addWidgetEP7QWidget
   fun:_ZN3gui6window8house_qt14_create_layoutEv
   fun:_ZN3gui6window8house_qtC1Ev
   fun:_ZN3gui12house_app_qt5startEv
   fun:_ZN17app_functionality8house_qt3runEv
   fun:_Z7do_mainRiPPc
}
{
   <insert_a_suppression_name_here>
   Memcheck:Leak
   fun:malloc
   fun:_Z7qMallocj
   fun:_ZN7QString17fromLatin1_helperEPKci
   fun:_ZN16QSplitterPrivate12insertWidgetEiP7QWidget
   fun:_ZN16QSplitterPrivate19insertWidget_helperEiP7QWidgetb
   fun:_ZN9QSplitter12insertWidgetEiP7QWidget
   fun:_ZN9QSplitter9addWidgetEP7QWidget
   fun:_ZN3gui6window8house_qt14_create_layoutEv
   fun:_ZN3gui6window8house_qtC1Ev
   fun:_ZN3gui12house_app_qt5startEv
   fun:_ZN17app_functionality8house_qt3runEv
   fun:_Z7do_mainRiPPc
}
{
   <insert_a_suppression_name_here>
   Memcheck:Leak
   fun:malloc
   fun:_Z7qMallocj
   fun:_ZN7QString17fromLatin1_helperEPKci
   fun:_ZN16QSplitterPrivate12insertWidgetEiP7QWidget
   fun:_ZN16QSplitterPrivate19insertWidget_helperEiP7QWidgetb
   fun:_ZN9QSplitter12insertWidgetEiP7QWidget
   fun:_ZN9QSplitter9addWidgetEP7QWidget
   fun:_ZN3gui6window8house_qt14_create_layoutEv
   fun:_ZN3gui6window8house_qtC1Ev
   fun:_ZN3gui12house_app_qt5startEv
   fun:_ZN17app_functionality8house_qt3runEv
   fun:_Z7do_mainRiPPc
}
{
   <insert_a_suppression_name_here>
   Memcheck:Leak
   fun:malloc
   fun:_Z7qMallocj
   fun:_ZN7QString17fromLatin1_helperEPKci
   fun:_ZN7QString16fromAscii_helperEPKci
   fun:_ZN7QStringC1EPKc
   fun:_ZN3gui6window8house_qt15_create_actionsEv
   fun:_ZN3gui6window8house_qtC1Ev
   fun:_ZN3gui12house_app_qt5startEv
   fun:_ZN17app_functionality8house_qt3runEv
   fun:_Z7do_mainRiPPc
   fun:main
}
{
   <insert_a_suppression_name_here>
   Memcheck:Leak
   fun:malloc
   fun:_Z7qMallocj
   fun:_ZN11QVectorData8allocateEii
   fun:_ZN7QVectorIN18QHeaderViewPrivate11SectionSpanEE7reallocEii
   fun:_ZN7QVectorIN18QHeaderViewPrivate11SectionSpanEE6appendERKS1_
   fun:_ZN11QHeaderView16sectionsInsertedERK11QModelIndexii
   fun:_ZN11QHeaderView11qt_metacallEN11QMetaObject4CallEiPPv
   fun:_ZN11QMetaObject8metacallEP7QObjectNS_4CallEiPPv
   fun:_ZN11QMetaObject8activateEP7QObjectPKS_iPPv
   fun:_ZN18QAbstractItemModel15columnsInsertedERK11QModelIndexii
   fun:_ZN18QAbstractItemModel16endInsertColumnsEv
   fun:_ZN10QTreeModel14setColumnCountEi
}
{
   <insert_a_suppression_name_here>
   Memcheck:Leak
   fun:malloc
   fun:_Z7qMallocj
   fun:_ZN11QVectorData8allocateEii
   fun:_ZN7QVectorI13QLayoutStructEC1Ei
   fun:_ZN17QBoxLayoutPrivate9setupGeomEv
   fun:_ZN10QBoxLayout11setGeometryERK5QRect
   fun:_ZN14QLayoutPrivate8doResizeERK5QSize
   fun:_ZN7QLayout8activateEv
   fun:_ZN7QWidget10setVisibleEb
   fun:_ZN26QAbstractScrollAreaPrivate14layoutChildrenEv
   fun:_ZN19QAbstractScrollArea18setViewportMarginsEiiii
   fun:_ZN9QTreeView16updateGeometriesEv
}
{
   <insert_a_suppression_name_here>
   Memcheck:Leak
   fun:_Znwj
   fun:_ZN4QPenC1ERK6QBrushdN2Qt8PenStyleENS3_11PenCapStyleENS3_12PenJoinStyleE
   fun:_ZN8QPainter8initFromEPK7QWidget
   fun:_ZN8QPainter5beginEP12QPaintDevice
   fun:_ZN11QToolButton10paintEventEP11QPaintEvent
   fun:_ZN7QWidget5eventEP6QEvent
   fun:_ZN15QAbstractButton5eventEP6QEvent
   fun:_ZN11QToolButton5eventEP6QEvent
   fun:_ZN19QApplicationPrivate13notify_helperEP7QObjectP6QEvent
   fun:_ZN12QApplication6notifyEP7QObjectP6QEvent
   fun:_ZN16QCoreApplication14notifyInternalEP7QObjectP6QEvent
   fun:_ZN14QWidgetPrivate10drawWidgetEP12QPaintDeviceRK7QRegionRK6QPointiP8QPainterP19QWidgetBackingStore
}
{
   <insert_a_suppression_name_here>
   Memcheck:Leak
   fun:malloc
   fun:_Z7qMallocj
   fun:_ZN7QString17fromLatin1_helperEPKci
   fun:_ZN7QString16fromAscii_helperEPKci
   fun:_ZN7QStringC1EPKc
   fun:_ZN3gui6window8house_qt15_create_actionsEv
   fun:_ZN3gui6window8house_qtC1Ev
   fun:_ZN3gui12house_app_qt5startEv
   fun:_ZN17app_functionality8house_qt3runEv
   fun:_Z7do_mainRiPPc
   fun:main
}
{
   <insert_a_suppression_name_here>
   Memcheck:Leak
   fun:realloc
   fun:_Z8qReallocPvj
   fun:_ZN9QListData7reallocEi
   fun:_ZN9QListData6appendEi
   fun:_ZN9QListData6appendEv
   fun:_ZN9QListData6insertEi
   fun:_ZN7QWidget12insertActionEP7QActionS1_
   fun:_ZN7QWidget9addActionEP7QAction
   fun:_ZN3gui6window8house_qt13_create_menusEv
   fun:_ZN3gui6window8house_qtC1Ev
   fun:_ZN3gui12house_app_qt5startEv
   fun:_ZN17app_functionality8house_qt3runEv
}
{
   <insert_a_suppression_name_here>
   Memcheck:Leak
   fun:_Znwj
   fun:_ZN9__gnu_cxx13new_allocatorISt13_Rb_tree_nodeISt4pairIKiN11chat_gaming8user_keyEEEE8allocateEjPKv
   fun:_ZNSt8_Rb_treeIiSt4pairIKiN11chat_gaming8user_keyEESt10_Select1stIS4_ESt4lessIiESaIS4_EE11_M_get_nodeEv
   fun:_ZNSt8_Rb_treeIiSt4pairIKiN11chat_gaming8user_keyEESt10_Select1stIS4_ESt4lessIiESaIS4_EE14_M_create_nodeERKS4_
   fun:_ZNSt8_Rb_treeIiSt4pairIKiN11chat_gaming8user_keyEESt10_Select1stIS4_ESt4lessIiESaIS4_EE9_M_insertEPSt18_Rb_tree_node_baseSC_RKS4_
   fun:_ZNSt8_Rb_treeIiSt4pairIKiN11chat_gaming8user_keyEESt10_Select1stIS4_ESt4lessIiESaIS4_EE13insert_uniqueERKS4_
   fun:_ZNSt8_Rb_treeIiSt4pairIKiN11chat_gaming8user_keyEESt10_Select1stIS4_ESt4lessIiESaIS4_EE13insert_uniqueESt17_Rb_tree_iteratorIS4_ERKS4_
   fun:_ZNSt3mapIiN11chat_gaming8user_keyESt4lessIiESaISt4pairIKiS1_EEE6insertESt17_Rb_tree_iteratorIS6_ERKS6_
   fun:_ZNSt3mapIiN11chat_gaming8user_keyESt4lessIiESaISt4pairIKiS1_EEEixERS5_
   fun:_ZN10multi_feed4itemIN11chat_gaming8user_keyEE8set_feedERKS2_i
   fun:_ZN3gui4view12user_item_qt4userERKN11chat_gaming8user_keyEi
   fun:_ZN3gui4view8users_qt9_new_userERKN11chat_gaming4userEi
}
{
   <insert_a_suppression_name_here>
   Memcheck:Leak
   fun:malloc
   fun:_Z7qMallocj
   fun:_ZN7QString17fromLatin1_helperEPKci
   fun:_ZN7QString16fromAscii_helperEPKci
   fun:_ZN7QStringC1EPKc
   fun:_ZN3gui6window8house_qt15_create_actionsEv
   fun:_ZN3gui6window8house_qtC1Ev
   fun:_ZN3gui12house_app_qt5startEv
   fun:_ZN17app_functionality8house_qt3runEv
   fun:_Z7do_mainRiPPc
   fun:main
}
{
   <insert_a_suppression_name_here>
   Memcheck:Leak
   fun:malloc
   fun:_Z7qMallocj
   fun:_ZN7QString17fromLatin1_helperEPKci
   fun:_ZN7QString16fromAscii_helperEPKci
   fun:_ZN7QStringC1EPKc
   fun:_ZN3gui6window8house_qt15_create_actionsEv
   fun:_ZN3gui6window8house_qtC1Ev
   fun:_ZN3gui12house_app_qt5startEv
   fun:_ZN17app_functionality8house_qt3runEv
   fun:_Z7do_mainRiPPc
   fun:main
}
{
   <insert_a_suppression_name_here>
   Memcheck:Leak
   fun:malloc
   fun:_Z7qMallocj
   fun:_ZN7QString17fromLatin1_helperEPKci
   fun:_ZN7QString16fromAscii_helperEPKci
   fun:_ZN7QStringC1EPKc
   fun:_ZN3gui4view12user_item_qt16_resolve_user_idEv
   fun:_ZN3gui4view12user_item_qt18resolve_user_stateEv
   fun:_ZN3gui4view8users_qt9_new_userERKN11chat_gaming4userEi
   fun:_ZN3gui4view8users_qt12_update_userERKN11chat_gaming4userEi
   fun:_ZN3gui4view8users_qt12_update_userERKN11chat_gaming8user_keyEi
   fun:_ZN3gui4view8users_qt14handle_messageEP7message
   fun:_ZN3gui6window8house_qt14handle_messageEP7message
}
{
   <insert_a_suppression_name_here>
   Memcheck:Leak
   fun:_Znaj
   fun:_ZN3gui4view7chat_qtC1EP7QWidgetRKSs
   fun:_ZN3gui6window8house_qt15_create_widgetsEv
   fun:_ZN3gui6window8house_qtC1Ev
   fun:_ZN3gui12house_app_qt5startEv
   fun:_ZN17app_functionality8house_qt3runEv
   fun:_Z7do_mainRiPPc
   fun:main
}
{
   <insert_a_suppression_name_here>
   Memcheck:Leak
   fun:malloc
   fun:_Z7qMallocj
   fun:_ZN7QString17fromLatin1_helperEPKci
   fun:_ZN7QString16fromAscii_helperEPKci
   fun:_ZN7QStringC1EPKc
   fun:_ZN3gui6window8house_qt15_create_actionsEv
   fun:_ZN3gui6window8house_qtC1Ev
   fun:_ZN3gui12house_app_qt5startEv
   fun:_ZN17app_functionality8house_qt3runEv
   fun:_Z7do_mainRiPPc
   fun:main
}
{
   <insert_a_suppression_name_here>
   Memcheck:Leak
   fun:malloc
   fun:_Z7qMallocj
   fun:_ZN7QString17fromLatin1_helperEPKci
   fun:_ZN7QString16fromAscii_helperEPKci
   fun:_ZN7QStringC1EPKc
   fun:_ZN3gui6window8house_qt15_create_actionsEv
   fun:_ZN3gui6window8house_qtC1Ev
   fun:_ZN3gui12house_app_qt5startEv
   fun:_ZN17app_functionality8house_qt3runEv
   fun:_Z7do_mainRiPPc
   fun:main
}
{
   <insert_a_suppression_name_here>
   Memcheck:Leak
   fun:malloc
   fun:_Z7qMallocj
   fun:_ZN7QString7reallocEi
   fun:_ZN7QString7reallocEv
   fun:_ZN7QString6removeEii
   fun:_ZN7QString6removeERKS_N2Qt15CaseSensitivityE
   fun:_Z15qt_strippedText7QString
   fun:_ZNK7QAction8iconTextEv
   fun:_ZN11QToolButton16setDefaultActionEP7QAction
   fun:_ZN14QToolBarLayout10createItemEP7QAction
   fun:_ZN14QToolBarLayout12insertActionEiP7QAction
   fun:_ZN8QToolBar11actionEventEP12QActionEvent
}
{
   <insert_a_suppression_name_here>
   Memcheck:Leak
   fun:malloc
   fun:_Z7qMallocj
   fun:_ZN7QString7reallocEi
   fun:_ZN7QString7reallocEv
   fun:_ZN7QString6removeEii
   fun:_ZN7QString6removeERKS_N2Qt15CaseSensitivityE
   fun:_Z15qt_strippedText7QString
   fun:_ZNK7QAction7toolTipEv
   fun:_ZN11QToolButton16setDefaultActionEP7QAction
   fun:_ZN14QToolBarLayout10createItemEP7QAction
   fun:_ZN14QToolBarLayout12insertActionEiP7QAction
   fun:_ZN8QToolBar11actionEventEP12QActionEvent
}
{
   <insert_a_suppression_name_here>
   Memcheck:Leak
   fun:malloc
   fun:_Z7qMallocj
   fun:_ZN11QVectorData8allocateEii
   fun:_ZN7QVectorI11QScriptLineE7reallocEii
   fun:_ZN7QVectorI11QScriptLineE6appendERKS0_
   fun:_ZN11QTextLayout10createLineEv
   fun:_ZN26QTextDocumentLayoutPrivate11layoutBlockERK10QTextBlockiRK16QTextBlockFormatP17QTextLayoutStructiiPS4_
   fun:_ZN26QTextDocumentLayoutPrivate10layoutFlowEN10QTextFrame8iteratorEP17QTextLayoutStructii6QFixed
   fun:_ZN26QTextDocumentLayoutPrivate11layoutFrameEP10QTextFrameii6QFixedS2_S2_
   fun:_ZN26QTextDocumentLayoutPrivate11layoutFrameEP10QTextFrameii6QFixed
   fun:_ZN19QTextDocumentLayout8doLayoutEiii
   fun:_ZNK26QTextDocumentLayoutPrivate24ensureLayoutedByPositionEi
}
{
   <insert_a_suppression_name_here>
   Memcheck:Leak
   fun:_Znwj
   fun:_ZN12QTessellatorC2Ev
   fun:_ZN22QX11PaintEnginePrivate4initEv
   fun:_ZN15QX11PaintEngineC1Ev
   fun:_ZNK14QX11PixmapData11paintEngineEv
   fun:_ZNK7QPixmap11paintEngineEv
   fun:_ZN14QWidgetPrivate10drawWidgetEP12QPaintDeviceRK7QRegionRK6QPointiP8QPainterP19QWidgetBackingStore
   fun:_ZN19QWidgetBackingStore4syncEv
   fun:_ZN19QWidgetBackingStore4syncEP7QWidgetRK7QRegion
   fun:_ZN14QWidgetPrivate16syncBackingStoreERK7QRegion
   fun:_ZN9QETWidget19translatePaintEventEPK7_XEvent
   fun:_ZN12QApplication15x11ProcessEventEP7_XEvent
}
{
   <insert_a_suppression_name_here>
   Memcheck:Leak
   fun:_Znwj
   fun:_ZN14QObjectPrivate13addConnectionEiPNS_10ConnectionE
   fun:_ZN18QMetaObjectPrivate7connectEPK7QObjectiS2_iiPi
   fun:_ZN7QObject7connectEPKS_PKcS1_S3_N2Qt14ConnectionTypeE
   fun:_ZN11QToolButton11actionEventEP12QActionEvent
   fun:_ZN7QWidget5eventEP6QEvent
   fun:_ZN15QAbstractButton5eventEP6QEvent
   fun:_ZN11QToolButton5eventEP6QEvent
   fun:_ZN19QApplicationPrivate13notify_helperEP7QObjectP6QEvent
   fun:_ZN12QApplication6notifyEP7QObjectP6QEvent
   fun:_ZN16QCoreApplication14notifyInternalEP7QObjectP6QEvent
   fun:_ZN7QWidget12insertActionEP7QActionS1_
}
{
   <insert_a_suppression_name_here>
   Memcheck:Leak
   fun:malloc
   fun:_Z7qMallocj
   fun:_ZN7QString17fromLatin1_helperEPKci
   fun:_ZN17QMenuBarExtensionC1EP7QWidget
   fun:_ZN15QMenuBarPrivate4initEv
   fun:_ZN8QMenuBarC1EP7QWidget
   fun:_ZNK11QMainWindow7menuBarEv
   fun:_ZN3gui6window8house_qt13_create_menusEv
   fun:_ZN3gui6window8house_qtC1Ev
   fun:_ZN3gui12house_app_qt5startEv
   fun:_ZN17app_functionality8house_qt3runEv
   fun:_Z7do_mainRiPPc
}
{
   <insert_a_suppression_name_here>
   Memcheck:Leak
   fun:malloc
   fun:_Z7qMallocj
   fun:_ZN7QString17fromLatin1_helperEPKci
   fun:_ZN17QToolBarExtensionC1EP7QWidget
   fun:_ZN14QToolBarLayoutC1EP7QWidget
   fun:_ZN15QToolBarPrivate4initEv
   fun:_ZN8QToolBarC1EP7QWidget
   fun:_ZN11QMainWindow10addToolBarERK7QString
   fun:_ZN3gui6window8house_qt16_create_toolbarsEv
   fun:_ZN3gui6window8house_qtC1Ev
   fun:_ZN3gui12house_app_qt5startEv
   fun:_ZN17app_functionality8house_qt3runEv
}
{
   <insert_a_suppression_name_here>
   Memcheck:Leak
   fun:malloc
   fun:_Z7qMallocj
   fun:_ZN7QString17fromLatin1_helperEPKci
   fun:_ZN17QToolBarExtensionC1EP7QWidget
   fun:_ZN14QToolBarLayoutC1EP7QWidget
   fun:_ZN15QToolBarPrivate4initEv
   fun:_ZN8QToolBarC1EP7QWidget
   fun:_ZN11QMainWindow10addToolBarERK7QString
   fun:_ZN3gui6window8house_qt16_create_toolbarsEv
   fun:_ZN3gui6window8house_qtC1Ev
   fun:_ZN3gui12house_app_qt5startEv
   fun:_ZN17app_functionality8house_qt3runEv
}
{
   <insert_a_suppression_name_here>
   Memcheck:Leak
   fun:malloc
   fun:_Z7qMallocj
   fun:_ZN11QVectorData8allocateEii
   fun:_ZN7QVectorIN18QTextFormatPrivate8PropertyEE7reallocEii
   fun:_ZN7QVectorIN18QTextFormatPrivate8PropertyEE6appendERKS1_
   fun:_ZN11QTextFormat11setPropertyEiRK8QVariant
   fun:_ZN15QTextCharFormat13setFontWeightEi
   fun:_ZN3gui4view7chat_qtC1EP7QWidgetRKSs
   fun:_ZN3gui6window8house_qt15_create_widgetsEv
   fun:_ZN3gui6window8house_qtC1Ev
   fun:_ZN3gui12house_app_qt5startEv
   fun:_ZN17app_functionality8house_qt3runEv
}
{
   <insert_a_suppression_name_here>
   Memcheck:Leak
   fun:malloc
   fun:_Z7qMallocj
   fun:_ZN11QVectorData8allocateEii
   fun:_ZN7QVectorIN18QTextFormatPrivate8PropertyEE7reallocEii
   fun:_ZN7QVectorIN18QTextFormatPrivate8PropertyEE6appendERKS1_
   fun:_ZN11QTextFormat11setPropertyEiRK8QVariant
   fun:_ZN15QTextCharFormat13setFontWeightEi
   fun:_ZN3gui4view7chat_qtC1EP7QWidgetRKSs
   fun:_ZN3gui6window8house_qt15_create_widgetsEv
   fun:_ZN3gui6window8house_qtC1Ev
   fun:_ZN3gui12house_app_qt5startEv
   fun:_ZN17app_functionality8house_qt3runEv
}
{
   <insert_a_suppression_name_here>
   Memcheck:Leak
   fun:malloc
   fun:_Z7qMallocj
   fun:_ZN11QVectorData8allocateEii
   fun:_ZN7QVectorIN14QObjectPrivate14ConnectionListEE7reallocEii
   fun:_ZN7QVectorIN14QObjectPrivate14ConnectionListEE6resizeEi
   fun:_ZN14QObjectPrivate13addConnectionEiPNS_10ConnectionE
   fun:_ZN18QMetaObjectPrivate7connectEPK7QObjectiS2_iiPi
   fun:_ZN7QObject7connectEPKS_PKcS1_S3_N2Qt14ConnectionTypeE
   fun:_ZN12QActionGroup9addActionEP7QAction
   fun:_ZN3gui6window8house_qt15_create_actionsEv
   fun:_ZN3gui6window8house_qtC1Ev
   fun:_ZN3gui12house_app_qt5startEv
}
{
   <insert_a_suppression_name_here>
   Memcheck:Leak
   fun:malloc
   fun:_Z7qMallocj
   fun:_ZN11QVectorData8allocateEii
   fun:_ZN7QVectorIN14QObjectPrivate14ConnectionListEE7reallocEii
   fun:_ZN7QVectorIN14QObjectPrivate14ConnectionListEE6resizeEi
   fun:_ZN14QObjectPrivate13addConnectionEiPNS_10ConnectionE
   fun:_ZN18QMetaObjectPrivate7connectEPK7QObjectiS2_iiPi
   fun:_ZN7QObject7connectEPKS_PKcS1_S3_N2Qt14ConnectionTypeE
   fun:_ZN12QActionGroup9addActionEP7QAction
   fun:_ZN3gui6window8house_qt15_create_actionsEv
   fun:_ZN3gui6window8house_qtC1Ev
   fun:_ZN3gui12house_app_qt5startEv
}
{
   <insert_a_suppression_name_here>
   Memcheck:Leak
   fun:malloc
   fun:_Z7qMallocj
   fun:_ZN11QVectorData8allocateEii
   fun:_ZN7QVectorIN14QObjectPrivate14ConnectionListEE7reallocEii
   fun:_ZN7QVectorIN14QObjectPrivate14ConnectionListEE6resizeEi
   fun:_ZN14QObjectPrivate13addConnectionEiPNS_10ConnectionE
   fun:_ZN18QMetaObjectPrivate7connectEPK7QObjectiS2_iiPi
   fun:_ZN7QObject7connectEPKS_PKcS1_S3_N2Qt14ConnectionTypeE
   fun:_ZN12QActionGroup9addActionEP7QAction
   fun:_ZN3gui6window8house_qt15_create_actionsEv
   fun:_ZN3gui6window8house_qtC1Ev
   fun:_ZN3gui12house_app_qt5startEv
}
{
   <insert_a_suppression_name_here>
   Memcheck:Leak
   fun:malloc
   fun:_Z7qMallocj
   fun:_ZN11QVectorData8allocateEii
   fun:_ZN7QVectorIN14QObjectPrivate14ConnectionListEE7reallocEii
   fun:_ZN7QVectorIN14QObjectPrivate14ConnectionListEE6resizeEi
   fun:_ZN14QObjectPrivate13addConnectionEiPNS_10ConnectionE
   fun:_ZN18QMetaObjectPrivate7connectEPK7QObjectiS2_iiPi
   fun:_ZN7QObject7connectEPKS_PKcS1_S3_N2Qt14ConnectionTypeE
   fun:_ZN12QActionGroup9addActionEP7QAction
   fun:_ZN3gui6window8house_qt15_create_actionsEv
   fun:_ZN3gui6window8house_qtC1Ev
   fun:_ZN3gui12house_app_qt5startEv
}
{
   <insert_a_suppression_name_here>
   Memcheck:Leak
   fun:malloc
   fun:_Z7qMallocj
   fun:_ZN11QVectorData8allocateEii
   fun:_ZN7QVectorIN14QObjectPrivate14ConnectionListEE7reallocEii
   fun:_ZN7QVectorIN14QObjectPrivate14ConnectionListEE6resizeEi
   fun:_ZN14QObjectPrivate13addConnectionEiPNS_10ConnectionE
   fun:_ZN18QMetaObjectPrivate7connectEPK7QObjectiS2_iiPi
   fun:_ZN7QObject7connectEPKS_PKcS1_S3_N2Qt14ConnectionTypeE
   fun:_ZN18QToolButtonPrivate4initEv
   fun:_ZN11QToolButtonC2EP7QWidget
   fun:_ZN17QMenuBarExtensionC1EP7QWidget
   fun:_ZN15QMenuBarPrivate4initEv
}
{
   <insert_a_suppression_name_here>
   Memcheck:Leak
   fun:malloc
   fun:_Z7qMallocj
   fun:_ZN11QVectorData8allocateEii
   fun:_ZN7QVectorIN14QObjectPrivate14ConnectionListEE7reallocEii
   fun:_ZN7QVectorIN14QObjectPrivate14ConnectionListEE6resizeEi
   fun:_ZN14QObjectPrivate13addConnectionEiPNS_10ConnectionE
   fun:_ZN18QMetaObjectPrivate7connectEPK7QObjectiS2_iiPi
   fun:_ZN7QObject7connectEPKS_PKcS1_S3_N2Qt14ConnectionTypeE
   fun:_ZN15QToolBarPrivate4initEv
   fun:_ZN8QToolBarC1EP7QWidget
   fun:_ZN11QMainWindow10addToolBarERK7QString
   fun:_ZN3gui6window8house_qt16_create_toolbarsEv
}
{
   <insert_a_suppression_name_here>
   Memcheck:Leak
   fun:malloc
   fun:_Z7qMallocj
   fun:_ZN11QVectorData8allocateEii
   fun:_ZN7QVectorIN14QObjectPrivate14ConnectionListEE7reallocEii
   fun:_ZN7QVectorIN14QObjectPrivate14ConnectionListEE6resizeEi
   fun:_ZN14QObjectPrivate13addConnectionEiPNS_10ConnectionE
   fun:_ZN18QMetaObjectPrivate7connectEPK7QObjectiS2_iiPi
   fun:_ZN7QObject7connectEPKS_PKcS1_S3_N2Qt14ConnectionTypeE
   fun:_ZN11QMainWindow10addToolBarEN2Qt11ToolBarAreaEP8QToolBar
   fun:_ZN11QMainWindow10addToolBarEP8QToolBar
   fun:_ZN11QMainWindow10addToolBarERK7QString
   fun:_ZN3gui6window8house_qt16_create_toolbarsEv
}
{
   <insert_a_suppression_name_here>
   Memcheck:Leak
   fun:malloc
   fun:_Z7qMallocj
   fun:_ZN11QVectorData8allocateEii
   fun:_ZN7QVectorIN14QObjectPrivate14ConnectionListEE7reallocEii
   fun:_ZN7QVectorIN14QObjectPrivate14ConnectionListEE6resizeEi
   fun:_ZN14QObjectPrivate13addConnectionEiPNS_10ConnectionE
   fun:_ZN18QMetaObjectPrivate7connectEPK7QObjectiS2_iiPi
   fun:_ZN7QObject7connectEPKS_PKcS1_S3_N2Qt14ConnectionTypeE
   fun:_ZN15QToolBarPrivate4initEv
   fun:_ZN8QToolBarC1EP7QWidget
   fun:_ZN11QMainWindow10addToolBarERK7QString
   fun:_ZN3gui6window8house_qt16_create_toolbarsEv
}
{
   <insert_a_suppression_name_here>
   Memcheck:Leak
   fun:malloc
   fun:_Z7qMallocj
   fun:_ZN11QVectorData8allocateEii
   fun:_ZN7QVectorIN14QObjectPrivate14ConnectionListEE7reallocEii
   fun:_ZN7QVectorIN14QObjectPrivate14ConnectionListEE6resizeEi
   fun:_ZN14QObjectPrivate13addConnectionEiPNS_10ConnectionE
   fun:_ZN18QMetaObjectPrivate7connectEPK7QObjectiS2_iiPi
   fun:_ZN7QObject7connectEPKS_PKcS1_S3_N2Qt14ConnectionTypeE
   fun:_ZN15QToolBarPrivate4initEv
   fun:_ZN8QToolBarC1EP7QWidget
   fun:_ZN11QMainWindow10addToolBarERK7QString
   fun:_ZN3gui6window8house_qt16_create_toolbarsEv
}
{
   <insert_a_suppression_name_here>
   Memcheck:Leak
   fun:realloc
   fun:_Z8qReallocPvj
   fun:_ZN11QVectorData10reallocateEPS_iii
   fun:_ZN7QVectorI11QCheckPointE7reallocEii
   fun:_ZN7QVectorI11QCheckPointE6appendERKS0_
   fun:_ZN26QTextDocumentLayoutPrivate10layoutFlowEN10QTextFrame8iteratorEP17QTextLayoutStructii6QFixed
   fun:_ZN26QTextDocumentLayoutPrivate11layoutFrameEP10QTextFrameii6QFixedS2_S2_
   fun:_ZN26QTextDocumentLayoutPrivate11layoutFrameEP10QTextFrameii6QFixed
   fun:_ZN19QTextDocumentLayout8doLayoutEiii
   fun:_ZNK26QTextDocumentLayoutPrivate24ensureLayoutedByPositionEi
   fun:_ZNK26QTextDocumentLayoutPrivate10layoutStepEv
   fun:_ZN19QTextDocumentLayout15documentChangedEiii
}
{
   <insert_a_suppression_name_here>
   Memcheck:Leak
   fun:malloc
   fun:_Z7qMallocj
   fun:_ZN11QVectorData8allocateEii
   fun:_ZN7QVectorIN14QObjectPrivate14ConnectionListEE7reallocEii
   fun:_ZN7QVectorIN14QObjectPrivate14ConnectionListEE6resizeEi
   fun:_ZN14QObjectPrivate13addConnectionEiPNS_10ConnectionE
   fun:_ZN18QMetaObjectPrivate7connectEPK7QObjectiS2_iiPi
   fun:_ZN7QObject7connectEPKS_PKcS1_S3_N2Qt14ConnectionTypeE
   fun:_ZN12QActionGroup9addActionEP7QAction
   fun:_ZN3gui4view8users_qt20_create_context_menuEv
   fun:_ZN3gui4view8users_qtC1EP7QWidgetRKSs
   fun:_ZN3gui6window8house_qt15_create_widgetsEv
}
{
   <insert_a_suppression_name_here>
   Memcheck:Leak
   fun:malloc
   fun:_Z7qMallocj
   fun:_ZN11QVectorData8allocateEii
   fun:_ZN7QVectorIN14QObjectPrivate14ConnectionListEE7reallocEii
   fun:_ZN7QVectorIN14QObjectPrivate14ConnectionListEE6resizeEi
   fun:_ZN14QObjectPrivate13addConnectionEiPNS_10ConnectionE
   fun:_ZN18QMetaObjectPrivate7connectEPK7QObjectiS2_iiPi
   fun:_ZN7QObject7connectEPKS_PKcS1_S3_N2Qt14ConnectionTypeE
   fun:_ZN12QActionGroup9addActionEP7QAction
   fun:_ZN3gui4view8users_qt20_create_context_menuEv
   fun:_ZN3gui4view8users_qtC1EP7QWidgetRKSs
   fun:_ZN3gui6window8house_qt15_create_widgetsEv
}
{
   <insert_a_suppression_name_here>
   Memcheck:Leak
   fun:malloc
   fun:_Z7qMallocj
   fun:_ZN11QVectorData8allocateEii
   fun:_ZN7QVectorIN14QObjectPrivate14ConnectionListEE7reallocEii
   fun:_ZN7QVectorIN14QObjectPrivate14ConnectionListEE6resizeEi
   fun:_ZN14QObjectPrivate13addConnectionEiPNS_10ConnectionE
   fun:_ZN18QMetaObjectPrivate7connectEPK7QObjectiS2_iiPi
   fun:_ZN7QObject7connectEPKS_PKcS1_S3_N2Qt14ConnectionTypeE
   fun:_ZN12QActionGroup9addActionEP7QAction
   fun:_ZN3gui4view8users_qt20_create_context_menuEv
   fun:_ZN3gui4view8users_qtC1EP7QWidgetRKSs
   fun:_ZN3gui6window8house_qt15_create_widgetsEv
}
{
   <insert_a_suppression_name_here>
   Memcheck:Leak
   fun:malloc
   fun:_Z7qMallocj
   fun:_ZN11QVectorData8allocateEii
   fun:_ZN7QVectorIN14QObjectPrivate14ConnectionListEE7reallocEii
   fun:_ZN7QVectorIN14QObjectPrivate14ConnectionListEE6resizeEi
   fun:_ZN14QObjectPrivate13addConnectionEiPNS_10ConnectionE
   fun:_ZN18QMetaObjectPrivate7connectEPK7QObjectiS2_iiPi
   fun:_ZN7QObject7connectEPKS_PKcS1_S3_N2Qt14ConnectionTypeE
   fun:_ZN12QActionGroup9addActionEP7QAction
   fun:_ZN3gui4view8users_qt20_create_context_menuEv
   fun:_ZN3gui4view8users_qtC1EP7QWidgetRKSs
   fun:_ZN3gui6window8house_qt15_create_widgetsEv
}
{
   <insert_a_suppression_name_here>
   Memcheck:Leak
   fun:malloc
   fun:_Z7qMallocj
   fun:_ZN11QVectorData8allocateEii
   fun:_ZN7QVectorI15QWidgetItemDataE7reallocEii
   fun:_ZN7QVectorI15QWidgetItemDataE6appendERKS0_
   fun:_ZN15QTreeWidgetItem7setDataEiiRK8QVariant
   fun:_ZN15QTreeWidgetItem13setForegroundEiRK6QBrush
   fun:_ZN3gui4view12user_item_qt18resolve_user_stateEv
   fun:_ZN3gui4view8users_qt9_new_userERKN11chat_gaming4userEi
   fun:_ZN3gui4view8users_qt12_update_userERKN11chat_gaming4userEi
   fun:_ZN3gui4view8users_qt12_update_userERKN11chat_gaming8user_keyEi
   fun:_ZN3gui4view8users_qt14handle_messageEP7message
}
{
   <insert_a_suppression_name_here>
   Memcheck:Leak
   fun:malloc
   fun:_Z7qMallocj
   fun:_ZN11QVectorData8allocateEii
   fun:_ZN7QVectorI15QWidgetItemDataE7reallocEii
   fun:_ZN7QVectorI15QWidgetItemDataE13detach_helperEv
   fun:_ZN15QTreeWidgetItem7setDataEiiRK8QVariant
   fun:_ZN15QTreeWidgetItem7setIconEiRK5QIcon
   fun:_ZN3gui4view12user_item_qt18resolve_user_stateEv
   fun:_ZN3gui4view8users_qt12_update_userERKN11chat_gaming4userEi
   fun:_ZN3gui4view8users_qt12_update_userERKN11chat_gaming8user_keyEi
   fun:_ZN3gui4view8users_qt14handle_messageEP7message
   fun:_ZN3gui6window8house_qt14handle_messageEP7message
}
{
   <insert_a_suppression_name_here>
   Memcheck:Leak
   fun:malloc
   fun:_Z7qMallocj
   fun:_ZN9QListData11detach_growEPii
   fun:_ZN5QListIP14QBoxLayoutItemE18detach_helper_growEii
   fun:_ZN10QBoxLayout12insertWidgetEiP7QWidgeti6QFlagsIN2Qt13AlignmentFlagEE
   fun:_ZN10QBoxLayout9addWidgetEP7QWidgeti6QFlagsIN2Qt13AlignmentFlagEE
   fun:_ZN37QAbstractScrollAreaScrollBarContainerC1EN2Qt11OrientationEP7QWidget
   fun:_ZN26QAbstractScrollAreaPrivate4initEv
   fun:_ZN19QAbstractScrollAreaC2ER26QAbstractScrollAreaPrivateP7QWidget
   fun:_ZN17QAbstractItemViewC2ER24QAbstractItemViewPrivateP7QWidget
   fun:_ZN11QHeaderViewC1EN2Qt11OrientationEP7QWidget
   fun:_ZN16QTreeViewPrivate10initializeEv
}
{
   <insert_a_suppression_name_here>
   Memcheck:Leak
   fun:malloc
   fun:_Z7qMallocj
   fun:_ZN9QListData11detach_growEPii
   fun:_ZN5QListI8QVariantE18detach_helper_growEii
   fun:_ZN5QListI8QVariantE6appendERKS0_
   fun:_ZN15QTreeWidgetItem7setDataEiiRK8QVariant
   fun:_ZN15QTreeWidgetItem7setTextEiRK7QString
   fun:_ZN3gui4view12user_item_qt16_resolve_user_idEv
   fun:_ZN3gui4view12user_item_qt18resolve_user_stateEv
   fun:_ZN3gui4view8users_qt9_new_userERKN11chat_gaming4userEi
   fun:_ZN3gui4view8users_qt12_update_userERKN11chat_gaming4userEi
   fun:_ZN3gui4view8users_qt12_update_userERKN11chat_gaming8user_keyEi
}
{
   <insert_a_suppression_name_here>
   Memcheck:Leak
   fun:_Znwj
   fun:_ZN14QWidgetPrivate11createExtraEv
   fun:_ZN14QWidgetPrivate13createTLExtraEv
   fun:_ZN7QWidget14setWindowTitleERK7QString
   fun:_ZN11QMainWindow10addToolBarERK7QString
   fun:_ZN3gui6window8house_qt16_create_toolbarsEv
   fun:_ZN3gui6window8house_qtC1Ev
   fun:_ZN3gui12house_app_qt5startEv
   fun:_ZN17app_functionality8house_qt3runEv
   fun:_Z7do_mainRiPPc
   fun:main
}
{
   <insert_a_suppression_name_here>
   Memcheck:Leak
   fun:_Znwj
   fun:_ZN14QWidgetPrivate11createExtraEv
   fun:_ZN14QWidgetPrivate13createTLExtraEv
   fun:_ZN7QWidget14setWindowTitleERK7QString
   fun:_ZN11QMainWindow10addToolBarERK7QString
   fun:_ZN3gui6window8house_qt16_create_toolbarsEv
   fun:_ZN3gui6window8house_qtC1Ev
   fun:_ZN3gui12house_app_qt5startEv
   fun:_ZN17app_functionality8house_qt3runEv
   fun:_Z7do_mainRiPPc
   fun:main
}
{
   <insert_a_suppression_name_here>
   Memcheck:Leak
   fun:_Znwj
   fun:_ZN14QWidgetPrivate11createExtraEv
   fun:_ZN14QWidgetPrivate13createTLExtraEv
   fun:_ZN7QWidget14setWindowTitleERK7QString
   fun:_ZN11QMainWindow10addToolBarERK7QString
   fun:_ZN3gui6window8house_qt16_create_toolbarsEv
   fun:_ZN3gui6window8house_qtC1Ev
   fun:_ZN3gui12house_app_qt5startEv
   fun:_ZN17app_functionality8house_qt3runEv
   fun:_Z7do_mainRiPPc
   fun:main
}
{
   <insert_a_suppression_name_here>
   Memcheck:Leak
   fun:_Znwj
   fun:_ZN14QWidgetPrivate11createExtraEv
   fun:_ZN7QWidget9setCursorERK7QCursor
   fun:_ZN15QSplitterHandle14setOrientationEN2Qt11OrientationE
   fun:_ZN15QSplitterHandleC1EN2Qt11OrientationEP9QSplitter
   fun:_ZN9QSplitter12createHandleEv
   fun:_ZN16QSplitterPrivate12insertWidgetEiP7QWidget
   fun:_ZN16QSplitterPrivate19insertWidget_helperEiP7QWidgetb
   fun:_ZN9QSplitter12insertWidgetEiP7QWidget
   fun:_ZN9QSplitter9addWidgetEP7QWidget
   fun:_ZN3gui6window8house_qt14_create_layoutEv
   fun:_ZN3gui6window8house_qtC1Ev
}
{
   <insert_a_suppression_name_here>
   Memcheck:Leak
   fun:_Znwj
   fun:_ZN14QWidgetPrivate11createExtraEv
   fun:_ZN7QWidget9setCursorERK7QCursor
   fun:_ZN15QSplitterHandle14setOrientationEN2Qt11OrientationE
   fun:_ZN15QSplitterHandleC1EN2Qt11OrientationEP9QSplitter
   fun:_ZN9QSplitter12createHandleEv
   fun:_ZN16QSplitterPrivate12insertWidgetEiP7QWidget
   fun:_ZN16QSplitterPrivate19insertWidget_helperEiP7QWidgetb
   fun:_ZN9QSplitter12insertWidgetEiP7QWidget
   fun:_ZN9QSplitter9addWidgetEP7QWidget
   fun:_ZN3gui6window8house_qt14_create_layoutEv
   fun:_ZN3gui6window8house_qtC1Ev
}
{
   <insert_a_suppression_name_here>
   Memcheck:Leak
   fun:_Znwj
   fun:_ZN14QWidgetPrivate11createExtraEv
   fun:_ZN7QWidget9setCursorERK7QCursor
   fun:_ZN15QSplitterHandle14setOrientationEN2Qt11OrientationE
   fun:_ZN15QSplitterHandleC1EN2Qt11OrientationEP9QSplitter
   fun:_ZN9QSplitter12createHandleEv
   fun:_ZN16QSplitterPrivate12insertWidgetEiP7QWidget
   fun:_ZN16QSplitterPrivate19insertWidget_helperEiP7QWidgetb
   fun:_ZN9QSplitter12insertWidgetEiP7QWidget
   fun:_ZN9QSplitter9addWidgetEP7QWidget
   fun:_ZN3gui6window8house_qt14_create_layoutEv
   fun:_ZN3gui6window8house_qtC1Ev
}
{
   <insert_a_suppression_name_here>
   Memcheck:Leak
   fun:_Znwj
   fun:_ZN14QWidgetPrivate11createExtraEv
   fun:_ZN7QWidget9setCursorERK7QCursor
   fun:_ZN16QSizeGripPrivate4initEv
   fun:_ZN9QSizeGripC1EP7QWidget
   fun:_ZN10QStatusBar18setSizeGripEnabledEb
   fun:_ZN10QStatusBarC1EP7QWidget
   fun:_ZNK11QMainWindow9statusBarEv
   fun:_ZN3gui6window8house_qt14_update_statusEv
   fun:_ZN3gui6window8house_qtC1Ev
   fun:_ZN3gui12house_app_qt5startEv
   fun:_ZN17app_functionality8house_qt3runEv
}
{
   <insert_a_suppression_name_here>
   Memcheck:Leak
   fun:_Znwj
   fun:_ZN14QWidgetPrivate11createExtraEv
   fun:_ZN14QWidgetPrivate13createTLExtraEv
   fun:_ZN7QWidget4moveERK6QPoint
   fun:_ZN7QWidget15restoreGeometryERK10QByteArray
   fun:_ZN3gui6window21size_restoring_windowI11QMainWindowE4showEv
   fun:_ZN3gui12house_app_qt5startEv
   fun:_ZN17app_functionality8house_qt3runEv
   fun:_Z7do_mainRiPPc
   fun:main
}
{
   <insert_a_suppression_name_here>
   Memcheck:Leak
   fun:_Znwj
   fun:_ZN14QWidgetPrivate11createExtraEv
   fun:_ZN14QWidgetPrivate21setMinimumSize_helperERiS0_
   fun:_ZN7QWidget14setMinimumSizeEii
   fun:_ZN7QLayout8activateEv
   fun:_ZN7QWidget10setVisibleEb
   fun:_ZN26QAbstractScrollAreaPrivate14layoutChildrenEv
   fun:_ZN19QAbstractScrollArea18setViewportMarginsEiiii
   fun:_ZN9QTreeView16updateGeometriesEv
   fun:_ZN17QAbstractItemView11qt_metacallEN11QMetaObject4CallEiPPv
   fun:_ZN9QTreeView11qt_metacallEN11QMetaObject4CallEiPPv
   fun:_ZN11QTreeWidget11qt_metacallEN11QMetaObject4CallEiPPv
}
{
   <insert_a_suppression_name_here>
   Memcheck:Leak
   fun:_Znwj
   fun:_ZN14QWidgetPrivate11createExtraEv
   fun:_ZN14QWidgetPrivate21setMaximumSize_helperERiS0_
   fun:_ZN7QWidget14setMaximumSizeEii
   fun:_ZN16QSplitterPrivate6recalcEb
   fun:_ZN9QSplitter5eventEP6QEvent
   fun:_ZN19QApplicationPrivate13notify_helperEP7QObjectP6QEvent
   fun:_ZN12QApplication6notifyEP7QObjectP6QEvent
   fun:_ZN16QCoreApplication14notifyInternalEP7QObjectP6QEvent
   fun:_ZN14QWidgetPrivate11show_helperEv
   fun:_ZN7QWidget10setVisibleEb
   fun:_ZN14QWidgetPrivate12showChildrenEb
}
{
   <insert_a_suppression_name_here>
   Memcheck:Leak
   fun:_Znaj
   fun:_ZN9QHashData6rehashEi
   fun:_ZN25QPersistentModelIndexData6createERK11QModelIndex
   fun:_ZN21QPersistentModelIndexC1ERK11QModelIndex
   fun:_ZN9QTreeView6expandERK11QModelIndex
   fun:_ZN9QTreeView11setExpandedERK11QModelIndexb
   fun:_ZN11QTreeWidget15setItemExpandedEPK15QTreeWidgetItemb
   fun:_ZN15QTreeWidgetItem11setExpandedEb
   fun:_ZN3gui4view8users_qt15_add_group_itemERNS1_12_parent_itemEi
   fun:_ZN3gui4view8users_qt32_reserve_place_for_item_in_groupEi
   fun:_ZN3gui4view8users_qt14_add_user_itemEPNS0_12user_item_qtEi
   fun:_ZN3gui4view8users_qt9_new_userERKN11chat_gaming4userEi
}
{
   <insert_a_suppression_name_here>
   Memcheck:Leak
   fun:_Znaj
   fun:_ZN9QHashData6rehashEi
   fun:_ZN9QTreeView6expandERK11QModelIndex
   fun:_ZN9QTreeView11setExpandedERK11QModelIndexb
   fun:_ZN11QTreeWidget15setItemExpandedEPK15QTreeWidgetItemb
   fun:_ZN15QTreeWidgetItem11setExpandedEb
   fun:_ZN3gui4view8users_qt15_add_group_itemERNS1_12_parent_itemEi
   fun:_ZN3gui4view8users_qt32_reserve_place_for_item_in_groupEi
   fun:_ZN3gui4view8users_qt14_add_user_itemEPNS0_12user_item_qtEi
   fun:_ZN3gui4view8users_qt9_new_userERKN11chat_gaming4userEi
   fun:_ZN3gui4view8users_qt12_update_userERKN11chat_gaming4userEi
   fun:_ZN3gui4view8users_qt12_update_userERKN11chat_gaming8user_keyEi
}
{
   <insert_a_suppression_name_here>
   Memcheck:Leak
   fun:malloc
   fun:_Z7qMallocj
   fun:_ZN7QString17fromLatin1_helperEPKci
   fun:_ZN7QString16fromAscii_helperEPKci
   fun:_ZN7QStringC1EPKc
   fun:_ZN3gui6window8house_qt15_create_actionsEv
   fun:_ZN3gui6window8house_qtC1Ev
   fun:_ZN3gui12house_app_qt5startEv
   fun:_ZN17app_functionality8house_qt3runEv
   fun:_Z7do_mainRiPPc
   fun:main
}
{
   <insert_a_suppression_name_here>
   Memcheck:Leak
   fun:malloc
   fun:_Z7qMallocj
   fun:_ZN11QVectorData8allocateEii
   fun:_ZN7QVectorIN14QObjectPrivate14ConnectionListEE7reallocEii
   fun:_ZN7QVectorIN14QObjectPrivate14ConnectionListEE6resizeEi
   fun:_ZN14QObjectPrivate13addConnectionEiPNS_10ConnectionE
   fun:_ZN18QMetaObjectPrivate7connectEPK7QObjectiS2_iiPi
   fun:_ZN7QObject7connectEPKS_PKcS1_S3_N2Qt14ConnectionTypeE
   fun:_ZN19QTextControlPrivate24_q_documentLayoutChangedEv
   fun:_ZN19QTextControlPrivate10setContentEN2Qt10TextFormatERK7QStringP13QTextDocument
   fun:_ZN19QTextControlPrivate4initEN2Qt10TextFormatERK7QStringP13QTextDocument
   fun:_ZN12QTextControlC2EP7QObject
}
{
   <insert_a_suppression_name_here>
   Memcheck:Leak
   fun:_Znwj
   fun:_ZN8QMapData10createDataEi
   fun:_ZN4QMapIiP11QTextObjectE13detach_helperEv
   fun:_ZN20QTextDocumentPrivate12createObjectERK11QTextFormati
   fun:_ZNK20QTextDocumentPrivate9rootFrameEv
   fun:_ZN19QTextDocumentLayout8doLayoutEiii
   fun:_ZNK26QTextDocumentLayoutPrivate24ensureLayoutedByPositionEi
   fun:_ZNK26QTextDocumentLayoutPrivate10layoutStepEv
   fun:_ZN19QTextDocumentLayout15documentChangedEiii
   fun:_ZN20QTextDocumentPrivate10finishEditEv
   fun:_ZN20QTextDocumentPrivate12endEditBlockEv
   fun:_ZN20QTextDocumentPrivate11insertBlockERK5QChariiiN16QTextUndoCommand9OperationE
}
{
   <insert_a_suppression_name_here>
   Memcheck:Leak
   fun:_Znwj
   fun:_ZN8QMapData10createDataEi
   fun:_ZN4QMapIN2Qt11GestureTypeE6QFlagsINS0_11GestureFlagEEE13detach_helperEv
   fun:_ZN15QGestureManager11filterEventEP7QWidgetP6QEvent
   fun:_ZN12QApplication6notifyEP7QObjectP6QEvent
   fun:_ZN16QCoreApplication14notifyInternalEP7QObjectP6QEvent
   fun:_ZN7QWidget9setParentEPS_6QFlagsIN2Qt10WindowTypeEE
   fun:_ZN7QWidget9setParentEPS_
   fun:_ZN16QSplitterPrivate19insertWidget_helperEiP7QWidgetb
   fun:_ZN9QSplitter12insertWidgetEiP7QWidget
   fun:_ZN9QSplitter9addWidgetEP7QWidget
   fun:_ZN3gui6window8house_qt14_create_layoutEv
}
{
   <insert_a_suppression_name_here>
   Memcheck:Leak
   fun:_Znwj
   fun:_ZN8QMapData10createDataEi
   fun:_ZN4QMapIN2Qt11GestureTypeE6QFlagsINS0_11GestureFlagEEE13detach_helperEv
   fun:_ZN15QGestureManager11filterEventEP7QWidgetP6QEvent
   fun:_ZN12QApplication6notifyEP7QObjectP6QEvent
   fun:_ZN16QCoreApplication14notifyInternalEP7QObjectP6QEvent
   fun:_ZN14QActionPrivate15sendDataChangedEv
   fun:_ZN7QAction10setEnabledEb
   fun:_ZN3gui6window8house_qt27interruptable_action_updateEv
   fun:_ZN3gui6window8house_qtC1Ev
   fun:_ZN3gui12house_app_qt5startEv
   fun:_ZN17app_functionality8house_qt3runEv
}
{
   <insert_a_suppression_name_here>
   Memcheck:Leak
   fun:_Znwj
   fun:_ZN8QMapData10createDataEi
   fun:_ZN4QMapIP7QWidgetP18QPropertyAnimationE13detach_helperEv
   fun:_ZN15QWidgetAnimator7animateEP7QWidgetRK5QRectb
   fun:_ZN18QToolBarAreaLayout5applyEb
   fun:_ZN22QMainWindowLayoutState5applyEb
   fun:_ZN17QMainWindowLayout10applyStateER22QMainWindowLayoutStateb
   fun:_ZN17QMainWindowLayout11setGeometryERK5QRect
   fun:_ZN14QLayoutPrivate8doResizeERK5QSize
   fun:_ZN7QLayout8activateEv
   fun:_ZN7QWidget10setVisibleEb
   fun:_ZN7QWidget4showEv
}
{
   <insert_a_suppression_name_here>
   Memcheck:Leak
   fun:_Znwj
   fun:_ZN7QObjectC2EPS_
   fun:_ZN15QWidgetAnimatorC1EP17QMainWindowLayout
   fun:_ZN17QMainWindowLayoutC1EP11QMainWindowP7QLayout
   fun:_ZN18QMainWindowPrivate4initEv
   fun:_ZN11QMainWindowC2EP7QWidget6QFlagsIN2Qt10WindowTypeEE
   fun:_ZN3gui6window21size_restoring_windowI11QMainWindowEC2ERKSsP7QWidget
   fun:_ZN3gui6window8house_qtC1Ev
   fun:_ZN3gui12house_app_qt5startEv
   fun:_ZN17app_functionality8house_qt3runEv
   fun:_Z7do_mainRiPPc
   fun:main
}
{
   <insert_a_suppression_name_here>
   Memcheck:Leak
   fun:realloc
   fun:_Z8qReallocPvj
   fun:_ZN9QListData7reallocEi
   fun:_ZN9QListData6appendEi
   fun:_ZN9QListData6appendEv
   fun:_ZN5QListIP7QObjectE6appendERKS1_
   fun:_ZN14QObjectPrivate16setParent_helperEP7QObject
   fun:_ZN7QObject9setParentEPS_
   fun:_ZN7QObjectC2ER14QObjectPrivatePS_
   fun:_ZN21QAbstractItemDelegateC2ER14QObjectPrivateP7QObject
   fun:_ZN19QStyledItemDelegateC1EP7QObject
   fun:_ZN24QAbstractItemViewPrivate4initEv
}
{
   <insert_a_suppression_name_here>
   Memcheck:Leak
   fun:_Znwj
   fun:_ZN14QObjectPrivate13addConnectionEiPNS_10ConnectionE
   fun:_ZN18QMetaObjectPrivate7connectEPK7QObjectiS2_iiPi
   fun:_ZN7QObject7connectEPKS_PKcS1_S3_N2Qt14ConnectionTypeE
   fun:_ZN18QToolButtonPrivate4initEv
   fun:_ZN11QToolButtonC1EP7QWidget
   fun:_ZN14QToolBarLayout10createItemEP7QAction
   fun:_ZN14QToolBarLayout12insertActionEiP7QAction
   fun:_ZN8QToolBar11actionEventEP12QActionEvent
   fun:_ZN7QWidget5eventEP6QEvent
   fun:_ZN8QToolBar5eventEP6QEvent
   fun:_ZN19QApplicationPrivate13notify_helperEP7QObjectP6QEvent
}
{
   <insert_a_suppression_name_here>
   Memcheck:Leak
   fun:_Znwj
   fun:_Z10createDataP10QTextFrame
   fun:_Z10markFramesP10QTextFrameiii
   fun:_ZN19QTextDocumentLayout8doLayoutEiii
   fun:_ZNK26QTextDocumentLayoutPrivate24ensureLayoutedByPositionEi
   fun:_ZNK26QTextDocumentLayoutPrivate10layoutStepEv
   fun:_ZN19QTextDocumentLayout15documentChangedEiii
   fun:_ZN20QTextDocumentPrivate10finishEditEv
   fun:_ZN20QTextDocumentPrivate12endEditBlockEv
   fun:_ZN20QTextDocumentPrivate11insertBlockERK5QChariiiN16QTextUndoCommand9OperationE
   fun:_ZN20QTextDocumentPrivate11insertBlockEiiiN16QTextUndoCommand9OperationE
   fun:_ZN20QTextDocumentPrivate4initEv
}
{
   <insert_a_suppression_name_here>
   Memcheck:Leak
   fun:_Znwj
   fun:_ZN15QGraphicsSystem23createDefaultPixmapDataEN11QPixmapData9PixelTypeE
   fun:_ZN11QPixmapData6createEiiNS_9PixelTypeE
   fun:_ZN7QPixmap4initEiii
   fun:_ZN7QPixmapC1ERK5QSize
   fun:_ZN17QX11WindowSurface11setGeometryERK5QRect
   fun:_ZN19QWidgetBackingStore4syncEv
   fun:_ZN19QWidgetBackingStore4syncEP7QWidgetRK7QRegion
   fun:_ZN14QWidgetPrivate16syncBackingStoreERK7QRegion
   fun:_ZN9QETWidget19translatePaintEventEPK7_XEvent
   fun:_ZN12QApplication15x11ProcessEventEP7_XEvent
   fun:_ZN19QEventDispatcherX1113processEventsE6QFlagsIN10QEventLoop17ProcessEventsFlagEE
}
{
   <insert_a_suppression_name_here>
   Memcheck:Leak
   fun:_Znwj
   fun:_ZN15QGraphicsSystem23createDefaultPixmapDataEN11QPixmapData9PixelTypeE
   fun:_ZN7QBitmap9fromImageERK6QImage6QFlagsIN2Qt19ImageConversionFlagEE
   fun:_ZN7QBitmap8fromDataERK5QSizePKhN6QImage6FormatE
   fun:_Z17qt_pixmapForBrushib
   fun:_ZN15QX11PaintEngine11updateBrushERK6QBrushRK7QPointF
   fun:_ZN15QX11PaintEngine11updateStateERK17QPaintEngineState
   fun:_ZN15QPainterPrivate15updateStateImplEP13QPainterState
   fun:_ZN15QPainterPrivate11updateStateEP13QPainterState
   fun:_ZN8QPainter9drawRectsEPK5QRecti
   fun:_ZN8QPainter8fillRectERK5QRectRK6QBrush
   fun:_ZNK13QWindowsStyle13drawPrimitiveEN6QStyle16PrimitiveElementEPK12QStyleOptionP8QPainterPK7QWidget
}
{
   <insert_a_suppression_name_here>
   Memcheck:Leak
   fun:_Znwj
   fun:_ZN15QGraphicsSystem23createDefaultPixmapDataEN11QPixmapData9PixelTypeE
   fun:_ZN11QPixmapData6createEiiNS_9PixelTypeE
   fun:_ZN7QPixmap4initEiii
   fun:_ZN7QPixmapC1ERK5QSize
   fun:_ZN15QX11PaintEngine11updateBrushERK6QBrushRK7QPointF
   fun:_ZN15QX11PaintEngine11updateStateERK17QPaintEngineState
   fun:_ZN15QPainterPrivate15updateStateImplEP13QPainterState
   fun:_ZN15QPainterPrivate11updateStateEP13QPainterState
   fun:_ZN8QPainter9drawRectsEPK5QRecti
   fun:_ZN8QPainter8fillRectERK5QRectRK6QBrush
   fun:_ZNK13QWindowsStyle13drawPrimitiveEN6QStyle16PrimitiveElementEPK12QStyleOptionP8QPainterPK7QWidget
}
{
   <insert_a_suppression_name_here>
   Memcheck:Leak
   fun:_Znwj
   fun:_ZN11QTextLayoutC1ERK10QTextBlock
   fun:_ZNK10QTextBlock6layoutEv
   fun:_ZN26QTextDocumentLayoutPrivate11layoutBlockERK10QTextBlockiRK16QTextBlockFormatP17QTextLayoutStructiiPS4_
   fun:_ZN26QTextDocumentLayoutPrivate10layoutFlowEN10QTextFrame8iteratorEP17QTextLayoutStructii6QFixed
   fun:_ZN26QTextDocumentLayoutPrivate11layoutFrameEP10QTextFrameii6QFixedS2_S2_
   fun:_ZN26QTextDocumentLayoutPrivate11layoutFrameEP10QTextFrameii6QFixed
   fun:_ZN19QTextDocumentLayout8doLayoutEiii
   fun:_ZNK26QTextDocumentLayoutPrivate24ensureLayoutedByPositionEi
   fun:_ZNK26QTextDocumentLayoutPrivate10layoutStepEv
   fun:_ZN19QTextDocumentLayout15documentChangedEiii
   fun:_ZN20QTextDocumentPrivate10finishEditEv
}
{
   <insert_a_suppression_name_here>
   Memcheck:Leak
   fun:malloc
   fun:_Z7qMallocj
   fun:_ZN11QVectorData8allocateEii
   fun:_ZN7QVectorI13QLayoutStructEC1Ei
   fun:_ZNK14QToolBarLayout15updateGeomArrayEv
   fun:_ZN14QToolBarLayout13layoutActionsERK5QSize
   fun:_ZN14QToolBarLayout11setGeometryERK5QRect
   fun:_ZN14QLayoutPrivate8doResizeERK5QSize
   fun:_ZN7QLayout8activateEv
   fun:_ZN7QWidget10setVisibleEb
   fun:_ZN15QToolBarPrivate14setWindowStateEbbRK5QRect
   fun:_ZN18QToolBarAreaLayout12restoreStateER11QDataStreamRK5QListIP8QToolBarEhbb
}
{
   <insert_a_suppression_name_here>
   Memcheck:Leak
   fun:_Znwj
   fun:_ZN7QRegionC1ERK5QRectNS_10RegionTypeE
   fun:_ZNK14QWidgetPrivate17getOpaqueChildrenEv
   fun:_ZNK14QWidgetPrivate17getOpaqueChildrenEv
   fun:_ZNK14QWidgetPrivate17getOpaqueChildrenEv
   fun:_ZNK14QWidgetPrivate17getOpaqueChildrenEv
   fun:_ZNK14QWidgetPrivate17getOpaqueChildrenEv
   fun:_ZNK14QWidgetPrivate22subtractOpaqueChildrenER7QRegionRK5QRect
   fun:_ZN14QWidgetPrivate10drawWidgetEP12QPaintDeviceRK7QRegionRK6QPointiP8QPainterP19QWidgetBackingStore
   fun:_ZN19QWidgetBackingStore4syncEv
   fun:_ZN19QWidgetBackingStore4syncEP7QWidgetRK7QRegion
   fun:_ZN14QWidgetPrivate16syncBackingStoreERK7QRegion
}
{
   <insert_a_suppression_name_here>
   Memcheck:Leak
   fun:_Znwj
   fun:_ZN7QRegionC1ERK5QRectNS_10RegionTypeE
   fun:_ZNK14QWidgetPrivate17getOpaqueChildrenEv
   fun:_ZNK14QWidgetPrivate17getOpaqueChildrenEv
   fun:_ZNK14QWidgetPrivate17getOpaqueChildrenEv
   fun:_ZNK14QWidgetPrivate17getOpaqueChildrenEv
   fun:_ZNK14QWidgetPrivate17getOpaqueChildrenEv
   fun:_ZNK14QWidgetPrivate17getOpaqueChildrenEv
   fun:_ZNK14QWidgetPrivate22subtractOpaqueChildrenER7QRegionRK5QRect
   fun:_ZN14QWidgetPrivate10drawWidgetEP12QPaintDeviceRK7QRegionRK6QPointiP8QPainterP19QWidgetBackingStore
   fun:_ZN19QWidgetBackingStore4syncEv
   fun:_ZN19QWidgetBackingStore4syncEP7QWidgetRK7QRegion
}
{
   <insert_a_suppression_name_here>
   Memcheck:Leak
   fun:malloc
   fun:_Z7qMallocj
   fun:_ZN7QStringC1EPK5QChari
   fun:_Z7qulltoayiRK14QLocalePrivate
   fun:_ZNK14QLocalePrivate16longLongToStringExiiij
   fun:_ZN7QString6setNumExi
   fun:_ZN7QString6numberEii
   fun:_ZN10QTreeModel14setColumnCountEi
   fun:_ZN11QTreeWidget14setColumnCountEi
   fun:_ZN3gui4view8rooms_qtC1EP7QWidget
   fun:_ZN3gui6window8house_qt15_create_widgetsEv
   fun:_ZN3gui6window8house_qtC1Ev
}
{
   <insert_a_suppression_name_here>
   Memcheck:Leak
   fun:_Znwj
   fun:_ZN12QActionGroupC1EP7QObject
   fun:_ZN3gui6window8house_qt15_create_actionsEv
   fun:_ZN3gui6window8house_qtC1Ev
   fun:_ZN3gui12house_app_qt5startEv
   fun:_ZN17app_functionality8house_qt3runEv
   fun:_Z7do_mainRiPPc
   fun:main
}
{
   <insert_a_suppression_name_here>
   Memcheck:Leak
   fun:_Znwj
   fun:_ZN12QActionGroupC1EP7QObject
   fun:_ZN3gui4view8users_qt20_create_context_menuEv
   fun:_ZN3gui4view8users_qtC1EP7QWidgetRKSs
   fun:_ZN3gui6window8house_qt15_create_widgetsEv
   fun:_ZN3gui6window8house_qtC1Ev
   fun:_ZN3gui12house_app_qt5startEv
   fun:_ZN17app_functionality8house_qt3runEv
   fun:_Z7do_mainRiPPc
   fun:main
}
{
   <insert_a_suppression_name_here>
   Memcheck:Leak
   fun:malloc
   fun:_Z7qMallocj
   fun:_ZN11QVectorData8allocateEii
   fun:_ZN7QVectorIN14QObjectPrivate14ConnectionListEE7reallocEii
   fun:_ZN7QVectorIN14QObjectPrivate14ConnectionListEE6resizeEi
   fun:_ZN14QObjectPrivate13addConnectionEiPNS_10ConnectionE
   fun:_ZN18QMetaObjectPrivate7connectEPK7QObjectiS2_iiPi
   fun:_ZN7QObject7connectEPKS_PKcS1_S3_N2Qt14ConnectionTypeE
   fun:_ZN17QAbstractItemView17setSelectionModelEP19QItemSelectionModel
   fun:_ZN17QAbstractItemView8setModelEP18QAbstractItemModel
   fun:_ZN11QHeaderView8setModelEP18QAbstractItemModel
   fun:_ZN9QTreeView8setModelEP18QAbstractItemModel
}
{
   <insert_a_suppression_name_here>
   Memcheck:Leak
   fun:_Znwj
   fun:_ZN5QIcon7addFileERK7QStringRK5QSizeNS_4ModeENS_5StateE
   fun:_ZN5QIconC1ERK7QString
   fun:_ZN13icon_store_qt13_icon_factoryERKSs
   fun:_ZN13icon_store_qt4loadEPKcRKSs
   fun:_ZN13icon_store_qt13scan_from_dirESsPKcz
   fun:_ZN3gui12house_app_qtC1ERiPPc
   fun:_ZN17app_functionality8house_qtC1ERiPPc
   fun:_Z8init_appRiPPc
   fun:_Z7do_mainRiPPc
   fun:main
}
{
   <insert_a_suppression_name_here>
   Memcheck:Leak
   fun:_Znwj
   fun:_ZN6QBrush4initERK6QColorN2Qt10BrushStyleE
   fun:_ZN6QBrushC1ERK6QColorN2Qt10BrushStyleE
   fun:_ZN3gui4view7chat_qtC1EP7QWidgetRKSs
   fun:_ZN3gui6window8house_qt15_create_widgetsEv
   fun:_ZN3gui6window8house_qtC1Ev
   fun:_ZN3gui12house_app_qt5startEv
   fun:_ZN17app_functionality8house_qt3runEv
   fun:_Z7do_mainRiPPc
   fun:main
}
{
   <insert_a_suppression_name_here>
   Memcheck:Leak
   fun:_Znwj
   fun:_ZN6QBrush4initERK6QColorN2Qt10BrushStyleE
   fun:_ZN6QBrushC1ERK6QColorN2Qt10BrushStyleE
   fun:_ZN3gui4view7chat_qtC1EP7QWidgetRKSs
   fun:_ZN3gui6window8house_qt15_create_widgetsEv
   fun:_ZN3gui6window8house_qtC1Ev
   fun:_ZN3gui12house_app_qt5startEv
   fun:_ZN17app_functionality8house_qt3runEv
   fun:_Z7do_mainRiPPc
   fun:main
}
{
   <insert_a_suppression_name_here>
   Memcheck:Leak
   fun:_Znwj
   fun:_ZN6QBrush4initERK6QColorN2Qt10BrushStyleE
   fun:_ZN6QBrushC1ERK6QColorN2Qt10BrushStyleE
   fun:_ZN3gui4view7chat_qtC1EP7QWidgetRKSs
   fun:_ZN3gui6window8house_qt15_create_widgetsEv
   fun:_ZN3gui6window8house_qtC1Ev
   fun:_ZN3gui12house_app_qt5startEv
   fun:_ZN17app_functionality8house_qt3runEv
   fun:_Z7do_mainRiPPc
   fun:main
}
{
   <insert_a_suppression_name_here>
   Memcheck:Leak
   fun:_Znwj
   fun:_ZN6QBrush4initERK6QColorN2Qt10BrushStyleE
   fun:_ZN6QBrushC1ERK6QColorN2Qt10BrushStyleE
   fun:_ZN3gui4view7chat_qtC1EP7QWidgetRKSs
   fun:_ZN3gui6window8house_qt15_create_widgetsEv
   fun:_ZN3gui6window8house_qtC1Ev
   fun:_ZN3gui12house_app_qt5startEv
   fun:_ZN17app_functionality8house_qt3runEv
   fun:_Z7do_mainRiPPc
   fun:main
}
{
   <insert_a_suppression_name_here>
   Memcheck:Leak
   fun:_Znwj
   fun:_ZN6QBrush4initERK6QColorN2Qt10BrushStyleE
   fun:_ZN6QBrushC1ERK6QColorN2Qt10BrushStyleE
   fun:_ZN3gui4view7chat_qtC1EP7QWidgetRKSs
   fun:_ZN3gui6window8house_qt15_create_widgetsEv
   fun:_ZN3gui6window8house_qtC1Ev
   fun:_ZN3gui12house_app_qt5startEv
   fun:_ZN17app_functionality8house_qt3runEv
   fun:_Z7do_mainRiPPc
   fun:main
}
{
   <insert_a_suppression_name_here>
   Memcheck:Leak
   fun:_Znwj
   fun:_ZN6QBrush4initERK6QColorN2Qt10BrushStyleE
   fun:_ZN6QBrushC1EN2Qt11GlobalColorENS0_10BrushStyleE
   fun:_ZN16QTextFrameFormatC1Ev
   fun:_ZNK20QTextDocumentPrivate9rootFrameEv
   fun:_ZN19QTextDocumentLayout8doLayoutEiii
   fun:_ZNK26QTextDocumentLayoutPrivate24ensureLayoutedByPositionEi
   fun:_ZNK26QTextDocumentLayoutPrivate10layoutStepEv
   fun:_ZN19QTextDocumentLayout15documentChangedEiii
   fun:_ZN20QTextDocumentPrivate10finishEditEv
   fun:_ZN20QTextDocumentPrivate12endEditBlockEv
   fun:_ZN20QTextDocumentPrivate11insertBlockERK5QChariiiN16QTextUndoCommand9OperationE
}
{
   <insert_a_suppression_name_here>
   Memcheck:Leak
   fun:malloc
   fun:_Z7qMallocj
   fun:_ZN11QVectorData8allocateEii
   fun:_ZN7QVectorI13QLayoutStructEC1Ei
   fun:_ZN17QBoxLayoutPrivate9setupGeomEv
   fun:_ZNK10QBoxLayout8sizeHintEv
   fun:_ZNK7QLayout13totalSizeHintEv
   fun:_ZNK7QWidget8sizeHintEv
   fun:_ZNK19QAbstractScrollArea15minimumSizeHintEv
   fun:_Z13qSmartMinSizePK7QWidget
   fun:_ZN16QSplitterPrivate6recalcEb
   fun:_ZN16QSplitterPrivate19insertWidget_helperEiP7QWidgetb
}
{
   <insert_a_suppression_name_here>
   Memcheck:Leak
   fun:_Znwj
   fun:_ZN10QTextFrameC1EP13QTextDocument
   fun:_ZN13QTextDocument12createObjectERK11QTextFormat
   fun:_ZN20QTextDocumentPrivate12createObjectERK11QTextFormati
   fun:_ZNK20QTextDocumentPrivate9rootFrameEv
   fun:_ZN19QTextDocumentLayout8doLayoutEiii
   fun:_ZNK26QTextDocumentLayoutPrivate24ensureLayoutedByPositionEi
   fun:_ZNK26QTextDocumentLayoutPrivate10layoutStepEv
   fun:_ZN19QTextDocumentLayout15documentChangedEiii
   fun:_ZN20QTextDocumentPrivate10finishEditEv
   fun:_ZN20QTextDocumentPrivate12endEditBlockEv
   fun:_ZN20QTextDocumentPrivate11insertBlockERK5QChariiiN16QTextUndoCommand9OperationE
}
{
   <insert_a_suppression_name_here>
   Memcheck:Leak
   fun:malloc
   fun:_Z7qMallocj
   fun:_ZN11QVectorData8allocateEii
   fun:_ZN7QVectorIN18QTextFormatPrivate8PropertyEE7reallocEii
   fun:_ZN7QVectorIN18QTextFormatPrivate8PropertyEE6appendERKS1_
   fun:_ZN11QTextFormat11setPropertyEiRK8QVariant
   fun:_ZN11QTextFormat13setForegroundERK6QBrush
   fun:_ZN3gui4view7chat_qtC1EP7QWidgetRKSs
   fun:_ZN3gui6window8house_qt15_create_widgetsEv
   fun:_ZN3gui6window8house_qtC1Ev
   fun:_ZN3gui12house_app_qt5startEv
   fun:_ZN17app_functionality8house_qt3runEv
}
{
   <insert_a_suppression_name_here>
   Memcheck:Leak
   fun:malloc
   fun:_Z7qMallocj
   fun:_ZN11QVectorData8allocateEii
   fun:_ZN7QVectorIN14QObjectPrivate14ConnectionListEE7reallocEii
   fun:_ZN7QVectorIN14QObjectPrivate14ConnectionListEE6resizeEi
   fun:_ZN14QObjectPrivate13addConnectionEiPNS_10ConnectionE
   fun:_ZN18QMetaObjectPrivate7connectEPK7QObjectiS2_iiPi
   fun:_ZN7QObject7connectEPKS_PKcS1_S3_N2Qt14ConnectionTypeE
   fun:_ZN26QAbstractScrollAreaPrivate4initEv
   fun:_ZN19QAbstractScrollAreaC2ER26QAbstractScrollAreaPrivateP7QWidget
   fun:_ZN17QAbstractItemViewC2ER24QAbstractItemViewPrivateP7QWidget
   fun:_ZN11QHeaderViewC1EN2Qt11OrientationEP7QWidget
}
{
   <insert_a_suppression_name_here>
   Memcheck:Leak
   fun:malloc
   fun:XCreateGC
   fun:_ZN17QX11WindowSurface11setGeometryERK5QRect
   fun:_ZN19QWidgetBackingStore4syncEv
   fun:_ZN19QWidgetBackingStore4syncEP7QWidgetRK7QRegion
   fun:_ZN14QWidgetPrivate16syncBackingStoreERK7QRegion
   fun:_ZN9QETWidget19translatePaintEventEPK7_XEvent
   fun:_ZN12QApplication15x11ProcessEventEP7_XEvent
   fun:_ZN19QEventDispatcherX1113processEventsE6QFlagsIN10QEventLoop17ProcessEventsFlagEE
   fun:_ZN10QEventLoop13processEventsE6QFlagsINS_17ProcessEventsFlagEE
   fun:_ZN10QEventLoop4execE6QFlagsINS_17ProcessEventsFlagEE
   fun:_ZN7QDialog4execEv
}
{
   <insert_a_suppression_name_here>
   Memcheck:Leak
   fun:_Znwj
   fun:_ZN14QWidgetPrivate13createTLExtraEv
   fun:_ZN7QWidget14setWindowTitleERK7QString
   fun:_ZN11QMainWindow10addToolBarERK7QString
   fun:_ZN3gui6window8house_qt16_create_toolbarsEv
   fun:_ZN3gui6window8house_qtC1Ev
   fun:_ZN3gui12house_app_qt5startEv
   fun:_ZN17app_functionality8house_qt3runEv
   fun:_Z7do_mainRiPPc
   fun:main
}
{
   <insert_a_suppression_name_here>
   Memcheck:Leak
   fun:_Znwj
   fun:_ZN14QWidgetPrivate13createTLExtraEv
   fun:_ZN7QWidget14setWindowTitleERK7QString
   fun:_ZN11QMainWindow10addToolBarERK7QString
   fun:_ZN3gui6window8house_qt16_create_toolbarsEv
   fun:_ZN3gui6window8house_qtC1Ev
   fun:_ZN3gui12house_app_qt5startEv
   fun:_ZN17app_functionality8house_qt3runEv
   fun:_Z7do_mainRiPPc
   fun:main
}
{
   <insert_a_suppression_name_here>
   Memcheck:Leak
   fun:_Znwj
   fun:_ZN14QWidgetPrivate13createTLExtraEv
   fun:_ZN7QWidget14setWindowTitleERK7QString
   fun:_ZN11QMainWindow10addToolBarERK7QString
   fun:_ZN3gui6window8house_qt16_create_toolbarsEv
   fun:_ZN3gui6window8house_qtC1Ev
   fun:_ZN3gui12house_app_qt5startEv
   fun:_ZN17app_functionality8house_qt3runEv
   fun:_Z7do_mainRiPPc
   fun:main
}
{
   <insert_a_suppression_name_here>
   Memcheck:Leak
   fun:malloc
   fun:_Z7qMallocj
   fun:_ZN11QVectorData8allocateEii
   fun:_ZN7QVectorIN14QObjectPrivate14ConnectionListEE7reallocEii
   fun:_ZN7QVectorIN14QObjectPrivate14ConnectionListEE6resizeEi
   fun:_ZN14QObjectPrivate13addConnectionEiPNS_10ConnectionE
   fun:_ZN18QMetaObjectPrivate7connectEPK7QObjectiS2_iiPi
   fun:_ZN7QObject7connectEPKS_PKcS1_S3_N2Qt14ConnectionTypeE
   fun:_ZN19QTextControlPrivate10setContentEN2Qt10TextFormatERK7QStringP13QTextDocument
   fun:_ZN19QTextControlPrivate4initEN2Qt10TextFormatERK7QStringP13QTextDocument
   fun:_ZN12QTextControlC2EP7QObject
   fun:_ZN16QTextEditPrivate4initERK7QString
}
{
   <insert_a_suppression_name_here>
   Memcheck:Leak
   fun:_Znwj
   fun:_ZN14QWidgetPrivate13createTLExtraEv
   fun:_ZN7QWidget4moveERK6QPoint
   fun:_ZN7QWidget15restoreGeometryERK10QByteArray
   fun:_ZN3gui6window21size_restoring_windowI11QMainWindowE4showEv
   fun:_ZN3gui12house_app_qt5startEv
   fun:_ZN17app_functionality8house_qt3runEv
   fun:_Z7do_mainRiPPc
   fun:main
}
{
   <insert_a_suppression_name_here>
   Memcheck:Leak
   fun:_Znwj
   fun:_ZNK8QX11Info10getX11DataEb
   fun:_ZN14QX11PixmapData9fromImageERK6QImage6QFlagsIN2Qt19ImageConversionFlagEE
   fun:_ZN7QPixmap9fromImageERK6QImage6QFlagsIN2Qt19ImageConversionFlagEE
   fun:_ZN7QPixmapC1EPKPKc
   fun:_ZNK12QCommonStyle14standardPixmapEN6QStyle14StandardPixmapEPK12QStyleOptionPK7QWidget
   fun:_ZNK13QWindowsStyle14standardPixmapEN6QStyle14StandardPixmapEPK12QStyleOptionPK7QWidget
   fun:_ZNK16QCleanlooksStyle14standardPixmapEN6QStyle14StandardPixmapEPK12QStyleOptionPK7QWidget
   fun:_ZNK12QCommonStyle26standardIconImplementationEN6QStyle14StandardPixmapEPK12QStyleOptionPK7QWidget
   fun:_ZNK13QWindowsStyle26standardIconImplementationEN6QStyle14StandardPixmapEPK12QStyleOptionPK7QWidget
   fun:_ZNK16QCleanlooksStyle26standardIconImplementationEN6QStyle14StandardPixmapEPK12QStyleOptionPK7QWidget
   fun:_ZN16QCleanlooksStyle11qt_metacallEN11QMetaObject4CallEiPPv
}
{
   <insert_a_suppression_name_here>
   Memcheck:Leak
   fun:malloc
   fun:_Z7qMallocj
   fun:_ZN11QVectorData8allocateEii
   fun:_ZN7QVectorI13QLayoutStructEC1Ei
   fun:_ZN17QBoxLayoutPrivate9setupGeomEv
   fun:_ZNK10QBoxLayout11maximumSizeEv
   fun:_ZN17QBoxLayoutPrivate9setupGeomEv
   fun:_ZNK10QBoxLayout11maximumSizeEv
   fun:_ZN17QBoxLayoutPrivate9setupGeomEv
   fun:_ZN10QBoxLayout11setGeometryERK5QRect
   fun:_ZN14QLayoutPrivate8doResizeERK5QSize
   fun:_ZN7QLayout8activateEv
}
{
   <insert_a_suppression_name_here>
   Memcheck:Leak
   fun:malloc
   fun:_Z7qMallocj
   fun:_ZN11QVectorData8allocateEii
   fun:_ZN7QVectorI13QLayoutStructEC1Ei
   fun:_ZN17QBoxLayoutPrivate9setupGeomEv
   fun:_ZNK10QBoxLayout11maximumSizeEv
   fun:_ZN17QBoxLayoutPrivate9setupGeomEv
   fun:_ZN10QBoxLayout11setGeometryERK5QRect
   fun:_ZN14QLayoutPrivate8doResizeERK5QSize
   fun:_ZN7QLayout8activateEv
   fun:_ZN7QLayout11widgetEventEP6QEvent
   fun:_ZN19QApplicationPrivate13notify_helperEP7QObjectP6QEvent
}
{
   <insert_a_suppression_name_here>
   Memcheck:Leak
   fun:_Znwj
   fun:_ZN7QLayoutC2EP7QWidget
   fun:_ZN17QMainWindowLayoutC1EP11QMainWindowP7QLayout
   fun:_ZN18QMainWindowPrivate4initEv
   fun:_ZN11QMainWindowC2EP7QWidget6QFlagsIN2Qt10WindowTypeEE
   fun:_ZN3gui6window21size_restoring_windowI11QMainWindowEC2ERKSsP7QWidget
   fun:_ZN3gui6window8house_qtC1Ev
   fun:_ZN3gui12house_app_qt5startEv
   fun:_ZN17app_functionality8house_qt3runEv
   fun:_Z7do_mainRiPPc
   fun:main
}
{
   <insert_a_suppression_name_here>
   Memcheck:Leak
   fun:realloc
   fun:_Z8qReallocPvj
   fun:_ZN9QListData7reallocEi
   fun:_ZN9QListData6appendEi
   fun:_ZN9QListData6appendEv
   fun:_ZN5QListIP7QObjectE6appendERKS1_
   fun:_ZN14QObjectPrivate16setParent_helperEP7QObject
   fun:_ZN7QObject9setParentEPS_
   fun:_ZN7QObjectC2ER14QObjectPrivatePS_
   fun:_ZN7QActionC1ERK7QStringP7QObject
   fun:_ZN3gui4view8users_qt15_create_actionsEv
   fun:_ZN3gui4view8users_qtC1EP7QWidgetRKSs
}
{
   <insert_a_suppression_name_here>
   Memcheck:Leak
   fun:realloc
   fun:_Z8qReallocPvj
   fun:_ZN11QVectorData10reallocateEPS_iii
   fun:_ZN7QVectorI13QTreeViewItemE7reallocEii
   fun:_ZN7QVectorI13QTreeViewItemE6resizeEi
   fun:_ZN16QTreeViewPrivate6layoutEibb
   fun:_ZN16QTreeViewPrivate6layoutEibb
   fun:_ZN9QTreeView13doItemsLayoutEv
   fun:_ZN17QAbstractItemView10timerEventEP11QTimerEvent
   fun:_ZN9QTreeView10timerEventEP11QTimerEvent
   fun:_ZN7QObject5eventEP6QEvent
   fun:_ZN7QWidget5eventEP6QEvent
}
{
   <insert_a_suppression_name_here>
   Memcheck:Leak
   fun:malloc
   fun:_Z7qMallocj
   fun:_ZN11QVectorData8allocateEii
   fun:_ZN7QVectorIN14QObjectPrivate14ConnectionListEE7reallocEii
   fun:_ZN7QVectorIN14QObjectPrivate14ConnectionListEE6resizeEi
   fun:_ZN14QObjectPrivate13addConnectionEiPNS_10ConnectionE
   fun:_ZN18QMetaObjectPrivate7connectEPK7QObjectiS2_iiPi
   fun:_ZN7QObject7connectEPKS_PKcS1_S3_N2Qt14ConnectionTypeE
   fun:_ZN17QAbstractItemView15setItemDelegateEP21QAbstractItemDelegate
   fun:_ZN24QAbstractItemViewPrivate4initEv
   fun:_ZN17QAbstractItemViewC2ER24QAbstractItemViewPrivateP7QWidget
   fun:_ZN9QTreeViewC2ER16QTreeViewPrivateP7QWidget
}
{
   <insert_a_suppression_name_here>
   Memcheck:Leak
   fun:malloc
   fun:_Z7qMallocj
   fun:_ZN11QVectorData8allocateEii
   fun:_ZN7QVectorIN14QObjectPrivate14ConnectionListEE7reallocEii
   fun:_ZN7QVectorIN14QObjectPrivate14ConnectionListEE6resizeEi
   fun:_ZN14QObjectPrivate13addConnectionEiPNS_10ConnectionE
   fun:_ZN18QMetaObjectPrivate7connectEPK7QObjectiS2_iiPi
   fun:_ZN7QObject7connectEPKS_PKcS1_S3_N2Qt14ConnectionTypeE
   fun:_ZN18QToolButtonPrivate4initEv
   fun:_ZN11QToolButtonC2EP7QWidget
   fun:_ZN17QToolBarExtensionC1EP7QWidget
   fun:_ZN14QToolBarLayoutC1EP7QWidget
}
{
   <insert_a_suppression_name_here>
   Memcheck:Leak
   fun:malloc
   fun:_Z7qMallocj
   fun:_ZN9QListData11detach_growEPii
   fun:_ZN5QListIP7QWidgetE18detach_helper_growEii
   fun:_ZN5QListIP7QWidgetE6appendERKS1_
   fun:_ZN7QWidget12insertActionEP7QActionS1_
   fun:_ZN7QWidget10addActionsE5QListIP7QActionE
   fun:_ZN3gui6window8house_qt13_create_menusEv
   fun:_ZN3gui6window8house_qtC1Ev
   fun:_ZN3gui12house_app_qt5startEv
   fun:_ZN17app_functionality8house_qt3runEv
   fun:_Z7do_mainRiPPc
}
{
   <insert_a_suppression_name_here>
   Memcheck:Leak
   fun:_Znwj
   fun:_ZN18QMetaObjectPrivate7connectEPK7QObjectiS2_iiPi
   fun:_ZN7QObject7connectEPKS_PKcS1_S3_N2Qt14ConnectionTypeE
   fun:_ZN5QMenu11actionEventEP12QActionEvent
   fun:_ZN7QWidget5eventEP6QEvent
   fun:_ZN5QMenu5eventEP6QEvent
   fun:_ZN19QApplicationPrivate13notify_helperEP7QObjectP6QEvent
   fun:_ZN12QApplication6notifyEP7QObjectP6QEvent
   fun:_ZN16QCoreApplication14notifyInternalEP7QObjectP6QEvent
   fun:_ZN7QWidget12insertActionEP7QActionS1_
   fun:_ZN7QWidget10addActionsE5QListIP7QActionE
   fun:_ZN3gui6window8house_qt13_create_menusEv
}
{
   <insert_a_suppression_name_here>
   Memcheck:Leak
   fun:_Znwj
   fun:_ZN18QMetaObjectPrivate7connectEPK7QObjectiS2_iiPi
   fun:_ZN7QObject7connectEPKS_PKcS1_S3_N2Qt14ConnectionTypeE
   fun:_ZN5QMenu11actionEventEP12QActionEvent
   fun:_ZN7QWidget5eventEP6QEvent
   fun:_ZN5QMenu5eventEP6QEvent
   fun:_ZN19QApplicationPrivate13notify_helperEP7QObjectP6QEvent
   fun:_ZN12QApplication6notifyEP7QObjectP6QEvent
   fun:_ZN16QCoreApplication14notifyInternalEP7QObjectP6QEvent
   fun:_ZN7QWidget12insertActionEP7QActionS1_
   fun:_ZN7QWidget10addActionsE5QListIP7QActionE
   fun:_ZN3gui6window8house_qt13_create_menusEv
}
{
   <insert_a_suppression_name_here>
   Memcheck:Leak
   fun:_Znwj
   fun:_ZN18QMetaObjectPrivate7connectEPK7QObjectiS2_iiPi
   fun:_ZN7QObject7connectEPKS_PKcS1_S3_N2Qt14ConnectionTypeE
   fun:_ZN18QToolButtonPrivate4initEv
   fun:_ZN11QToolButtonC1EP7QWidget
   fun:_ZN14QToolBarLayout10createItemEP7QAction
   fun:_ZN14QToolBarLayout12insertActionEiP7QAction
   fun:_ZN8QToolBar11actionEventEP12QActionEvent
   fun:_ZN7QWidget5eventEP6QEvent
   fun:_ZN8QToolBar5eventEP6QEvent
   fun:_ZN19QApplicationPrivate13notify_helperEP7QObjectP6QEvent
   fun:_ZN12QApplication6notifyEP7QObjectP6QEvent
}
{
   <insert_a_suppression_name_here>
   Memcheck:Leak
   fun:_Znwj
   fun:_ZN18QMetaObjectPrivate7connectEPK7QObjectiS2_iiPi
   fun:_ZN7QObject7connectEPKS_PKcS1_S3_N2Qt14ConnectionTypeE
   fun:_ZN14QToolBarLayout10createItemEP7QAction
   fun:_ZN14QToolBarLayout12insertActionEiP7QAction
   fun:_ZN8QToolBar11actionEventEP12QActionEvent
   fun:_ZN7QWidget5eventEP6QEvent
   fun:_ZN8QToolBar5eventEP6QEvent
   fun:_ZN19QApplicationPrivate13notify_helperEP7QObjectP6QEvent
   fun:_ZN12QApplication6notifyEP7QObjectP6QEvent
   fun:_ZN16QCoreApplication14notifyInternalEP7QObjectP6QEvent
   fun:_ZN7QWidget12insertActionEP7QActionS1_
}
{
   <insert_a_suppression_name_here>
   Memcheck:Leak
   fun:malloc
   fun:_Z7qMallocj
   fun:_ZN9QListData11detach_growEPii
   fun:_ZN5QListIP7QActionE18detach_helper_growEii
   fun:_ZN7QWidget12insertActionEP7QActionS1_
   fun:_ZN7QWidget9addActionEP7QAction
   fun:_ZN11QToolButton16setDefaultActionEP7QAction
   fun:_ZN14QToolBarLayout10createItemEP7QAction
   fun:_ZN14QToolBarLayout12insertActionEiP7QAction
   fun:_ZN8QToolBar11actionEventEP12QActionEvent
   fun:_ZN7QWidget5eventEP6QEvent
   fun:_ZN8QToolBar5eventEP6QEvent
}
{
   <insert_a_suppression_name_here>
   Memcheck:Leak
   fun:_Znwj
   fun:_ZN18QMetaObjectPrivate7connectEPK7QObjectiS2_iiPi
   fun:_ZN7QObject7connectEPKS_PKcS1_S3_N2Qt14ConnectionTypeE
   fun:_ZN11QToolButton11actionEventEP12QActionEvent
   fun:_ZN7QWidget5eventEP6QEvent
   fun:_ZN15QAbstractButton5eventEP6QEvent
   fun:_ZN11QToolButton5eventEP6QEvent
   fun:_ZN19QApplicationPrivate13notify_helperEP7QObjectP6QEvent
   fun:_ZN12QApplication6notifyEP7QObjectP6QEvent
   fun:_ZN16QCoreApplication14notifyInternalEP7QObjectP6QEvent
   fun:_ZN7QWidget12insertActionEP7QActionS1_
   fun:_ZN7QWidget9addActionEP7QAction
}
{
   <insert_a_suppression_name_here>
   Memcheck:Leak
   fun:_Znwj
   fun:_ZN18QMetaObjectPrivate7connectEPK7QObjectiS2_iiPi
   fun:_ZN7QObject7connectEPKS_PKcS1_S3_N2Qt14ConnectionTypeE
   fun:_ZN14QToolBarLayout10createItemEP7QAction
   fun:_ZN14QToolBarLayout12insertActionEiP7QAction
   fun:_ZN8QToolBar11actionEventEP12QActionEvent
   fun:_ZN7QWidget5eventEP6QEvent
   fun:_ZN8QToolBar5eventEP6QEvent
   fun:_ZN19QApplicationPrivate13notify_helperEP7QObjectP6QEvent
   fun:_ZN12QApplication6notifyEP7QObjectP6QEvent
   fun:_ZN16QCoreApplication14notifyInternalEP7QObjectP6QEvent
   fun:_ZN7QWidget12insertActionEP7QActionS1_
}
{
   <insert_a_suppression_name_here>
   Memcheck:Leak
   fun:malloc
   fun:_Z7qMallocj
   fun:_ZN9QListData11detach_growEPii
   fun:_ZN5QListIP7QWidgetE18detach_helper_growEii
   fun:_ZN5QListIP7QWidgetE6appendERKS1_
   fun:_ZN7QWidget12insertActionEP7QActionS1_
   fun:_ZN7QWidget10addActionsE5QListIP7QActionE
   fun:_ZN3gui4view8users_qt20_create_context_menuEv
   fun:_ZN3gui4view8users_qtC1EP7QWidgetRKSs
   fun:_ZN3gui6window8house_qt15_create_widgetsEv
   fun:_ZN3gui6window8house_qtC1Ev
   fun:_ZN3gui12house_app_qt5startEv
}
{
   <insert_a_suppression_name_here>
   Memcheck:Leak
   fun:_Znwj
   fun:_ZN18QMetaObjectPrivate7connectEPK7QObjectiS2_iiPi
   fun:_ZN7QObject7connectEPKS_PKcS1_S3_N2Qt14ConnectionTypeE
   fun:_ZN5QMenu11actionEventEP12QActionEvent
   fun:_ZN7QWidget5eventEP6QEvent
   fun:_ZN5QMenu5eventEP6QEvent
   fun:_ZN19QApplicationPrivate13notify_helperEP7QObjectP6QEvent
   fun:_ZN12QApplication6notifyEP7QObjectP6QEvent
   fun:_ZN16QCoreApplication14notifyInternalEP7QObjectP6QEvent
   fun:_ZN7QWidget12insertActionEP7QActionS1_
   fun:_ZN7QWidget10addActionsE5QListIP7QActionE
   fun:_ZN3gui4view8users_qt20_create_context_menuEv
}
{
   <insert_a_suppression_name_here>
   Memcheck:Leak
   fun:_Znwj
   fun:_ZN18QMetaObjectPrivate7connectEPK7QObjectiS2_iiPi
   fun:_ZN7QObject7connectEPKS_PKcS1_S3_N2Qt14ConnectionTypeE
   fun:_ZN5QMenu11actionEventEP12QActionEvent
   fun:_ZN7QWidget5eventEP6QEvent
   fun:_ZN5QMenu5eventEP6QEvent
   fun:_ZN19QApplicationPrivate13notify_helperEP7QObjectP6QEvent
   fun:_ZN12QApplication6notifyEP7QObjectP6QEvent
   fun:_ZN16QCoreApplication14notifyInternalEP7QObjectP6QEvent
   fun:_ZN7QWidget12insertActionEP7QActionS1_
   fun:_ZN7QWidget10addActionsE5QListIP7QActionE
   fun:_ZN3gui4view8users_qt20_create_context_menuEv
}
{
   <insert_a_suppression_name_here>
   Memcheck:Leak
   fun:malloc
   fun:_Z7qMallocj
   fun:_ZN11QVectorData8allocateEii
   fun:_ZN7QVectorI15QWidgetItemDataE7reallocEii
   fun:_ZN7QVectorI15QWidgetItemDataE6appendERKS0_
   fun:_ZN10QTreeModel14setColumnCountEi
   fun:_ZN11QTreeWidget14setColumnCountEi
   fun:_ZN3gui4view8rooms_qtC1EP7QWidget
   fun:_ZN3gui6window8house_qt15_create_widgetsEv
   fun:_ZN3gui6window8house_qtC1Ev
   fun:_ZN3gui12house_app_qt5startEv
   fun:_ZN17app_functionality8house_qt3runEv
}
{
   <insert_a_suppression_name_here>
   Memcheck:Leak
   fun:malloc
   fun:realloc
   fun:_ZN19QTessellatorPrivate8Scanline4initEi
   fun:_ZN12QTessellator10tessellateEPK7QPointFi
   fun:_ZN22QX11PaintEnginePrivate15fillPolygon_devEPK7QPointFiNS_6GCModeEN12QPaintEngine15PolygonDrawModeE
   fun:_ZN22QX11PaintEnginePrivate8fillPathERK12QPainterPathNS_6GCModeEb
   fun:_ZN15QX11PaintEngine8drawPathERK12QPainterPath
   fun:_ZN15QX11PaintEngine9drawLinesEPK5QLinei
   fun:_ZN8QPainter9drawLinesEPK5QLinei
   fun:_ZNK16QCleanlooksStyle13drawPrimitiveEN6QStyle16PrimitiveElementEPK12QStyleOptionP8QPainterPK7QWidget
   fun:_ZNK12QCommonStyle13drawPrimitiveEN6QStyle16PrimitiveElementEPK12QStyleOptionP8QPainterPK7QWidget
   fun:_ZNK13QWindowsStyle13drawPrimitiveEN6QStyle16PrimitiveElementEPK12QStyleOptionP8QPainterPK7QWidget
}
{
   <insert_a_suppression_name_here>
   Memcheck:Leak
   fun:malloc
   fun:realloc
   fun:_ZN19QTessellatorPrivate8Scanline4initEi
   fun:_ZN12QTessellator10tessellateEPK7QPointFi
   fun:_ZN22QX11PaintEnginePrivate15fillPolygon_devEPK7QPointFiNS_6GCModeEN12QPaintEngine15PolygonDrawModeE
   fun:_ZN22QX11PaintEnginePrivate8fillPathERK12QPainterPathNS_6GCModeEb
   fun:_ZN15QX11PaintEngine8drawPathERK12QPainterPath
   fun:_ZN15QX11PaintEngine9drawLinesEPK5QLinei
   fun:_ZN8QPainter9drawLinesEPK5QLinei
   fun:_ZNK16QCleanlooksStyle13drawPrimitiveEN6QStyle16PrimitiveElementEPK12QStyleOptionP8QPainterPK7QWidget
   fun:_ZNK12QCommonStyle13drawPrimitiveEN6QStyle16PrimitiveElementEPK12QStyleOptionP8QPainterPK7QWidget
   fun:_ZNK13QWindowsStyle13drawPrimitiveEN6QStyle16PrimitiveElementEPK12QStyleOptionP8QPainterPK7QWidget
}
{
   <insert_a_suppression_name_here>
   Memcheck:Leak
   fun:malloc
   fun:_Z7qMallocj
   fun:_ZN11QVectorData8allocateEii
   fun:_ZN7QVectorIN14QObjectPrivate14ConnectionListEE7reallocEii
   fun:_ZN7QVectorIN14QObjectPrivate14ConnectionListEE6resizeEi
   fun:_ZN14QObjectPrivate13addConnectionEiPNS_10ConnectionE
   fun:_ZN18QMetaObjectPrivate7connectEPK7QObjectiS2_iiPi
   fun:_ZN7QObject7connectEPKS_PKcS1_S3_N2Qt14ConnectionTypeE
   fun:_ZN9QTreeView17setSelectionModelEP19QItemSelectionModel
   fun:_ZN11QTreeWidget17setSelectionModelEP19QItemSelectionModel
   fun:_ZN17QAbstractItemView8setModelEP18QAbstractItemModel
   fun:_ZN9QTreeView8setModelEP18QAbstractItemModel
}
{
   <insert_a_suppression_name_here>
   Memcheck:Leak
   fun:_Znwj
   fun:_ZN8QMapData10createDataEi
   fun:_ZN4QMapIN2Qt11GestureTypeE6QFlagsINS0_11GestureFlagEEE13detach_helperEv
   fun:_ZN15QGestureManager11filterEventEP7QWidgetP6QEvent
   fun:_ZN12QApplication6notifyEP7QObjectP6QEvent
   fun:_ZN16QCoreApplication14notifyInternalEP7QObjectP6QEvent
   fun:_ZNK7QWidget14ensurePolishedEv
   fun:_ZNK7QWidget14ensurePolishedEv
   fun:_ZN7QWidget10setVisibleEb
   fun:_ZN18QToolBarAreaLayout12restoreStateER11QDataStreamRK5QListIP8QToolBarEhbb
   fun:_ZN22QMainWindowLayoutState12restoreStateER11QDataStreamRKS_
   fun:_ZN17QMainWindowLayout12restoreStateER11QDataStream
}
{
   <insert_a_suppression_name_here>
   Memcheck:Leak
   fun:_Znwj
   fun:_ZN8QMapData10createDataEi
   fun:_ZN4QMapIN2Qt11GestureTypeE6QFlagsINS0_11GestureFlagEEE13detach_helperEv
   fun:_ZN15QGestureManager11filterEventEP7QWidgetP6QEvent
   fun:_ZN12QApplication6notifyEP7QObjectP6QEvent
   fun:_ZN16QCoreApplication14notifyInternalEP7QObjectP6QEvent
   fun:_ZN7QWidget5eventEP6QEvent
   fun:_ZN19QApplicationPrivate13notify_helperEP7QObjectP6QEvent
   fun:_ZN12QApplication6notifyEP7QObjectP6QEvent
   fun:_ZN16QCoreApplication14notifyInternalEP7QObjectP6QEvent
   fun:_ZN7QWidget5eventEP6QEvent
   fun:_ZN6QFrame5eventEP6QEvent
}
{
   <insert_a_suppression_name_here>
   Memcheck:Leak
   fun:_Znwj
   fun:_ZN3gui4view8users_qt9_new_userERKN11chat_gaming4userEi
   fun:_ZN3gui4view8users_qt12_update_userERKN11chat_gaming4userEi
   fun:_ZN3gui4view8users_qt12_update_userERKN11chat_gaming8user_keyEi
   fun:_ZN3gui4view8users_qt14handle_messageEP7message
   fun:_ZN3gui6window8house_qt14handle_messageEP7message
   fun:_ZN3gui12house_app_qt17_handle_messengerEv
   fun:_ZN3gui12house_app_qt5eventEP6QEvent
   fun:_ZN19QApplicationPrivate13notify_helperEP7QObjectP6QEvent
   fun:_ZN12QApplication6notifyEP7QObjectP6QEvent
   fun:_ZN16QCoreApplication14notifyInternalEP7QObjectP6QEvent
   fun:_ZN23QCoreApplicationPrivate16sendPostedEventsEP7QObjectiP11QThreadData
}
{
   <insert_a_suppression_name_here>
   Memcheck:Leak
   fun:malloc
   fun:_Z7qMallocj
   fun:_ZN11QVectorData8allocateEii
   fun:_ZN7QVectorI22QPixmapIconEngineEntryE7reallocEii
   fun:_ZN7QVectorI22QPixmapIconEngineEntryE6appendERKS0_
   fun:_ZN17QPixmapIconEngine9addPixmapERK7QPixmapN5QIcon4ModeENS3_5StateE
   fun:_ZN5QIcon9addPixmapERK7QPixmapNS_4ModeENS_5StateE
   fun:_ZNK12QCommonStyle26standardIconImplementationEN6QStyle14StandardPixmapEPK12QStyleOptionPK7QWidget
   fun:_ZNK13QWindowsStyle26standardIconImplementationEN6QStyle14StandardPixmapEPK12QStyleOptionPK7QWidget
   fun:_ZNK16QCleanlooksStyle26standardIconImplementationEN6QStyle14StandardPixmapEPK12QStyleOptionPK7QWidget
   fun:_ZN16QCleanlooksStyle11qt_metacallEN11QMetaObject4CallEiPPv
   fun:_ZN11QMetaObject8metacallEP7QObjectNS_4CallEiPPv
}
{
   <insert_a_suppression_name_here>
   Memcheck:Leak
   fun:malloc
   fun:_Z7qMallocj
   fun:_ZN11QVectorData8allocateEii
   fun:_ZN7QVectorI13QLayoutStructEC1Ei
   fun:_ZN17QBoxLayoutPrivate9setupGeomEv
   fun:_ZNK10QBoxLayout8sizeHintEv
   fun:_ZNK7QLayout13totalSizeHintEv
   fun:_ZNK7QWidget8sizeHintEv
   fun:_ZNK19QAbstractScrollArea15minimumSizeHintEv
   fun:_Z13qSmartMinSizePK7QWidget
   fun:_ZN16QSplitterPrivate6recalcEb
   fun:_ZN16QSplitterPrivate19insertWidget_helperEiP7QWidgetb
}
{
   <insert_a_suppression_name_here>
   Memcheck:Leak
   fun:realloc
   fun:_Z8qReallocPvj
   fun:_ZN9QListData7reallocEi
   fun:_ZN9QListData6appendEi
   fun:_ZN9QListData6appendEv
   fun:_ZN5QListIP7QObjectE6appendERKS1_
   fun:_ZN14QObjectPrivate16setParent_helperEP7QObject
   fun:_ZN7QObject9setParentEPS_
   fun:_ZN18QAbstractAnimationC2ER25QAbstractAnimationPrivateP7QObject
   fun:_ZN17QVariantAnimationC2ER24QVariantAnimationPrivateP7QObject
   fun:_ZN18QPropertyAnimationC1EP7QObjectRK10QByteArrayS1_
   fun:_ZN15QWidgetAnimator7animateEP7QWidgetRK5QRectb
}
{
   <insert_a_suppression_name_here>
   Memcheck:Leak
   fun:_Znwj
   fun:_ZNK8QX11Info10getX11DataEb
   fun:_ZN14QX11PixmapData9fromImageERK6QImage6QFlagsIN2Qt19ImageConversionFlagEE
   fun:_ZN11QPixmapData8fromFileERK7QStringPKc6QFlagsIN2Qt19ImageConversionFlagEE
   fun:_ZN7QPixmap4loadERK7QStringPKc6QFlagsIN2Qt19ImageConversionFlagEE
   fun:_ZN7QPixmapC1ERK7QStringPKc6QFlagsIN2Qt19ImageConversionFlagEE
   fun:_ZN17QPixmapIconEngine9bestMatchERK5QSizeN5QIcon4ModeENS3_5StateEb
   fun:_ZN17QPixmapIconEngine6pixmapERK5QSizeN5QIcon4ModeENS3_5StateE
   fun:_ZNK5QIcon6pixmapERK5QSizeNS_4ModeENS_5StateE
   fun:_ZNK12QCommonStyle11drawControlEN6QStyle14ControlElementEPK12QStyleOptionP8QPainterPK7QWidget
   fun:_ZNK13QWindowsStyle11drawControlEN6QStyle14ControlElementEPK12QStyleOptionP8QPainterPK7QWidget
   fun:_ZNK16QCleanlooksStyle11drawControlEN6QStyle14ControlElementEPK12QStyleOptionP8QPainterPK7QWidget
}
{
   <insert_a_suppression_name_here>
   Memcheck:Leak
   fun:malloc
   fun:_Z7qMallocj
   fun:_ZN11QVectorData8allocateEii
   fun:_ZN7QVectorIN18QTextFormatPrivate8PropertyEE7reallocEii
   fun:_ZN7QVectorIN18QTextFormatPrivate8PropertyEE6appendERKS1_
   fun:_ZN11QTextFormat11setPropertyEiRK8QVariant
   fun:_ZN16QTextFrameFormat9setMarginEd
   fun:_ZNK20QTextDocumentPrivate9rootFrameEv
   fun:_ZN19QTextDocumentLayout8doLayoutEiii
   fun:_ZNK26QTextDocumentLayoutPrivate24ensureLayoutedByPositionEi
   fun:_ZNK26QTextDocumentLayoutPrivate10layoutStepEv
   fun:_ZN19QTextDocumentLayout15documentChangedEiii
}
{
   <insert_a_suppression_name_here>
   Memcheck:Leak
   fun:_Znwj
   fun:_ZN7QActionC1ERK7QStringP7QObject
   fun:_ZN3gui6window8house_qt15_create_actionsEv
   fun:_ZN3gui6window8house_qtC1Ev
   fun:_ZN3gui12house_app_qt5startEv
   fun:_ZN17app_functionality8house_qt3runEv
   fun:_Z7do_mainRiPPc
   fun:main
}
{
   <insert_a_suppression_name_here>
   Memcheck:Leak
   fun:_Znwj
   fun:_ZN7QActionC1ERK7QStringP7QObject
   fun:_ZN3gui6window8house_qt15_create_actionsEv
   fun:_ZN3gui6window8house_qtC1Ev
   fun:_ZN3gui12house_app_qt5startEv
   fun:_ZN17app_functionality8house_qt3runEv
   fun:_Z7do_mainRiPPc
   fun:main
}
{
   <insert_a_suppression_name_here>
   Memcheck:Leak
   fun:_Znwj
   fun:_ZN7QActionC1ERK7QStringP7QObject
   fun:_ZN3gui6window8house_qt15_create_actionsEv
   fun:_ZN3gui6window8house_qtC1Ev
   fun:_ZN3gui12house_app_qt5startEv
   fun:_ZN17app_functionality8house_qt3runEv
   fun:_Z7do_mainRiPPc
   fun:main
}
{
   <insert_a_suppression_name_here>
   Memcheck:Leak
   fun:_Znwj
   fun:_ZN7QActionC1ERK7QStringP7QObject
   fun:_ZN3gui6window8house_qt15_create_actionsEv
   fun:_ZN3gui6window8house_qtC1Ev
   fun:_ZN3gui12house_app_qt5startEv
   fun:_ZN17app_functionality8house_qt3runEv
   fun:_Z7do_mainRiPPc
   fun:main
}
{
   <insert_a_suppression_name_here>
   Memcheck:Leak
   fun:_Znwj
   fun:_ZN7QActionC1ERK7QStringP7QObject
   fun:_ZN3gui6window8house_qt15_create_actionsEv
   fun:_ZN3gui6window8house_qtC1Ev
   fun:_ZN3gui12house_app_qt5startEv
   fun:_ZN17app_functionality8house_qt3runEv
   fun:_Z7do_mainRiPPc
   fun:main
}
{
   <insert_a_suppression_name_here>
   Memcheck:Leak
   fun:_Znwj
   fun:_ZN7QActionC1ERK7QStringP7QObject
   fun:_ZN3gui6window8house_qt15_create_actionsEv
   fun:_ZN3gui6window8house_qtC1Ev
   fun:_ZN3gui12house_app_qt5startEv
   fun:_ZN17app_functionality8house_qt3runEv
   fun:_Z7do_mainRiPPc
   fun:main
}
{
   <insert_a_suppression_name_here>
   Memcheck:Leak
   fun:_Znwj
   fun:_ZN7QActionC1ERK7QStringP7QObject
   fun:_ZN3gui6window8house_qt15_create_actionsEv
   fun:_ZN3gui6window8house_qtC1Ev
   fun:_ZN3gui12house_app_qt5startEv
   fun:_ZN17app_functionality8house_qt3runEv
   fun:_Z7do_mainRiPPc
   fun:main
}
{
   <insert_a_suppression_name_here>
   Memcheck:Leak
   fun:_Znwj
   fun:_ZN7QActionC1ERK7QStringP7QObject
   fun:_ZN3gui6window8house_qt15_create_actionsEv
   fun:_ZN3gui6window8house_qtC1Ev
   fun:_ZN3gui12house_app_qt5startEv
   fun:_ZN17app_functionality8house_qt3runEv
   fun:_Z7do_mainRiPPc
   fun:main
}
{
   <insert_a_suppression_name_here>
   Memcheck:Leak
   fun:_Znwj
   fun:_ZN7QActionC1ERK7QStringP7QObject
   fun:_ZN3gui6window8house_qt15_create_actionsEv
   fun:_ZN3gui6window8house_qtC1Ev
   fun:_ZN3gui12house_app_qt5startEv
   fun:_ZN17app_functionality8house_qt3runEv
   fun:_Z7do_mainRiPPc
   fun:main
}
{
   <insert_a_suppression_name_here>
   Memcheck:Leak
   fun:_Znwj
   fun:_ZN7QActionC1ERK7QStringP7QObject
   fun:_ZN3gui6window8house_qt15_create_actionsEv
   fun:_ZN3gui6window8house_qtC1Ev
   fun:_ZN3gui12house_app_qt5startEv
   fun:_ZN17app_functionality8house_qt3runEv
   fun:_Z7do_mainRiPPc
   fun:main
}
{
   <insert_a_suppression_name_here>
   Memcheck:Leak
   fun:_Znwj
   fun:_ZN7QActionC1ERK7QStringP7QObject
   fun:_ZN3gui6window8house_qt15_create_actionsEv
   fun:_ZN3gui6window8house_qtC1Ev
   fun:_ZN3gui12house_app_qt5startEv
   fun:_ZN17app_functionality8house_qt3runEv
   fun:_Z7do_mainRiPPc
   fun:main
}
{
   <insert_a_suppression_name_here>
   Memcheck:Leak
   fun:_Znwj
   fun:_ZN7QActionC1ERK5QIconRK7QStringP7QObject
   fun:_ZN3gui6window8house_qt15_create_actionsEv
   fun:_ZN3gui6window8house_qtC1Ev
   fun:_ZN3gui12house_app_qt5startEv
   fun:_ZN17app_functionality8house_qt3runEv
   fun:_Z7do_mainRiPPc
   fun:main
}
{
   <insert_a_suppression_name_here>
   Memcheck:Leak
   fun:_Znwj
   fun:_ZN7QActionC1ERK5QIconRK7QStringP7QObject
   fun:_ZN3gui6window8house_qt15_create_actionsEv
   fun:_ZN3gui6window8house_qtC1Ev
   fun:_ZN3gui12house_app_qt5startEv
   fun:_ZN17app_functionality8house_qt3runEv
   fun:_Z7do_mainRiPPc
   fun:main
}
{
   <insert_a_suppression_name_here>
   Memcheck:Leak
   fun:_Znwj
   fun:_ZN7QActionC1ERK5QIconRK7QStringP7QObject
   fun:_ZN3gui6window8house_qt15_create_actionsEv
   fun:_ZN3gui6window8house_qtC1Ev
   fun:_ZN3gui12house_app_qt5startEv
   fun:_ZN17app_functionality8house_qt3runEv
   fun:_Z7do_mainRiPPc
   fun:main
}
{
   <insert_a_suppression_name_here>
   Memcheck:Leak
   fun:_Znwj
   fun:_ZN7QActionC1ERK5QIconRK7QStringP7QObject
   fun:_ZN3gui6window8house_qt15_create_actionsEv
   fun:_ZN3gui6window8house_qtC1Ev
   fun:_ZN3gui12house_app_qt5startEv
   fun:_ZN17app_functionality8house_qt3runEv
   fun:_Z7do_mainRiPPc
   fun:main
}
{
   <insert_a_suppression_name_here>
   Memcheck:Leak
   fun:_Znwj
   fun:_ZN7QActionC1ERK7QStringP7QObject
   fun:_ZN3gui4view8users_qt15_create_actionsEv
   fun:_ZN3gui4view8users_qtC1EP7QWidgetRKSs
   fun:_ZN3gui6window8house_qt15_create_widgetsEv
   fun:_ZN3gui6window8house_qtC1Ev
   fun:_ZN3gui12house_app_qt5startEv
   fun:_ZN17app_functionality8house_qt3runEv
   fun:_Z7do_mainRiPPc
   fun:main
}
{
   <insert_a_suppression_name_here>
   Memcheck:Leak
   fun:_Znwj
   fun:_ZN7QActionC1ERK7QStringP7QObject
   fun:_ZN3gui4view8users_qt15_create_actionsEv
   fun:_ZN3gui4view8users_qtC1EP7QWidgetRKSs
   fun:_ZN3gui6window8house_qt15_create_widgetsEv
   fun:_ZN3gui6window8house_qtC1Ev
   fun:_ZN3gui12house_app_qt5startEv
   fun:_ZN17app_functionality8house_qt3runEv
   fun:_Z7do_mainRiPPc
   fun:main
}
{
   <insert_a_suppression_name_here>
   Memcheck:Leak
   fun:_Znwj
   fun:_ZN7QActionC1ERK7QStringP7QObject
   fun:_ZN3gui4view8users_qt15_create_actionsEv
   fun:_ZN3gui4view8users_qtC1EP7QWidgetRKSs
   fun:_ZN3gui6window8house_qt15_create_widgetsEv
   fun:_ZN3gui6window8house_qtC1Ev
   fun:_ZN3gui12house_app_qt5startEv
   fun:_ZN17app_functionality8house_qt3runEv
   fun:_Z7do_mainRiPPc
   fun:main
}
{
   <insert_a_suppression_name_here>
   Memcheck:Leak
   fun:_Znwj
   fun:_ZN7QActionC1ERK7QStringP7QObject
   fun:_ZN3gui4view8users_qt15_create_actionsEv
   fun:_ZN3gui4view8users_qtC1EP7QWidgetRKSs
   fun:_ZN3gui6window8house_qt15_create_widgetsEv
   fun:_ZN3gui6window8house_qtC1Ev
   fun:_ZN3gui12house_app_qt5startEv
   fun:_ZN17app_functionality8house_qt3runEv
   fun:_Z7do_mainRiPPc
   fun:main
}
{
   <insert_a_suppression_name_here>
   Memcheck:Leak
   fun:_Znwj
   fun:_ZN7QActionC1ERK7QStringP7QObject
   fun:_ZN3gui4view8users_qt15_create_actionsEv
   fun:_ZN3gui4view8users_qtC1EP7QWidgetRKSs
   fun:_ZN3gui6window8house_qt15_create_widgetsEv
   fun:_ZN3gui6window8house_qtC1Ev
   fun:_ZN3gui12house_app_qt5startEv
   fun:_ZN17app_functionality8house_qt3runEv
   fun:_Z7do_mainRiPPc
   fun:main
}
{
   <insert_a_suppression_name_here>
   Memcheck:Leak
   fun:_Znwj
   fun:_ZN7QActionC1ERK7QStringP7QObject
   fun:_ZN3gui4view8users_qt15_create_actionsEv
   fun:_ZN3gui4view8users_qtC1EP7QWidgetRKSs
   fun:_ZN3gui6window8house_qt15_create_widgetsEv
   fun:_ZN3gui6window8house_qtC1Ev
   fun:_ZN3gui12house_app_qt5startEv
   fun:_ZN17app_functionality8house_qt3runEv
   fun:_Z7do_mainRiPPc
   fun:main
}
{
   <insert_a_suppression_name_here>
   Memcheck:Leak
   fun:_Znwj
   fun:_ZN7QActionC1EP7QObject
   fun:_ZN12QMenuPrivate4initEv
   fun:_ZN5QMenuC1EP7QWidget
   fun:_ZN3gui4view8users_qt20_create_context_menuEv
   fun:_ZN3gui4view8users_qtC1EP7QWidgetRKSs
   fun:_ZN3gui6window8house_qt15_create_widgetsEv
   fun:_ZN3gui6window8house_qtC1Ev
   fun:_ZN3gui12house_app_qt5startEv
   fun:_ZN17app_functionality8house_qt3runEv
   fun:_Z7do_mainRiPPc
   fun:main
}
{
   <insert_a_suppression_name_here>
   Memcheck:Leak
   fun:_Znwj
   fun:_ZN7QActionC1EP7QObject
   fun:_ZN12QMenuPrivate4initEv
   fun:_ZN5QMenuC1ERK7QStringP7QWidget
   fun:_ZN3gui4view8users_qt20_create_context_menuEv
   fun:_ZN3gui4view8users_qtC1EP7QWidgetRKSs
   fun:_ZN3gui6window8house_qt15_create_widgetsEv
   fun:_ZN3gui6window8house_qtC1Ev
   fun:_ZN3gui12house_app_qt5startEv
   fun:_ZN17app_functionality8house_qt3runEv
   fun:_Z7do_mainRiPPc
   fun:main
}
{
   <insert_a_suppression_name_here>
   Memcheck:Leak
   fun:malloc
   fun:_Z7qMallocj
   fun:_ZN11QVectorData8allocateEii
   fun:_ZN7QVectorIN14QObjectPrivate14ConnectionListEE7reallocEii
   fun:_ZN7QVectorIN14QObjectPrivate14ConnectionListEE6resizeEi
   fun:_ZN14QObjectPrivate13addConnectionEiPNS_10ConnectionE
   fun:_ZN18QMetaObjectPrivate7connectEPK7QObjectiS2_iiPi
   fun:_ZN7QObject7connectEPKS_PKcS1_S3_N2Qt14ConnectionTypeE
   fun:_ZN11QToolButton11actionEventEP12QActionEvent
   fun:_ZN7QWidget5eventEP6QEvent
   fun:_ZN15QAbstractButton5eventEP6QEvent
   fun:_ZN11QToolButton5eventEP6QEvent
}
{
   <insert_a_suppression_name_here>
   Memcheck:Leak
   fun:malloc
   fun:_Z7qMallocj
   fun:_ZN11QVectorData8allocateEii
   fun:_ZN7QVectorI22QPixmapIconEngineEntryE7reallocEii
   fun:_ZN7QVectorI22QPixmapIconEngineEntryE6appendERKS0_
   fun:_ZN17QPixmapIconEngine7addFileERK7QStringRK5QSizeN5QIcon4ModeENS6_5StateE
   fun:_ZN5QIcon7addFileERK7QStringRK5QSizeNS_4ModeENS_5StateE
   fun:_ZN5QIconC1ERK7QString
   fun:_ZN13icon_store_qt13_icon_factoryERKSs
   fun:_ZN13icon_store_qt4loadEPKcRKSs
   fun:_ZN13icon_store_qt13scan_from_dirESsPKcz
   fun:_ZN3gui12house_app_qtC1ERiPPc
}
{
   <insert_a_suppression_name_here>
   Memcheck:Leak
   fun:_Znwj
   fun:_ZN18QMetaObjectPrivate7connectEPK7QObjectiS2_iiPi
   fun:_ZN7QObject7connectEPKS_PKcS1_S3_N2Qt14ConnectionTypeE
   fun:_ZN14QToolBarLayout10createItemEP7QAction
   fun:_ZN14QToolBarLayout12insertActionEiP7QAction
   fun:_ZN8QToolBar11actionEventEP12QActionEvent
   fun:_ZN7QWidget5eventEP6QEvent
   fun:_ZN8QToolBar5eventEP6QEvent
   fun:_ZN19QApplicationPrivate13notify_helperEP7QObjectP6QEvent
   fun:_ZN12QApplication6notifyEP7QObjectP6QEvent
   fun:_ZN16QCoreApplication14notifyInternalEP7QObjectP6QEvent
   fun:_ZN7QWidget12insertActionEP7QActionS1_
}
{
   <insert_a_suppression_name_here>
   Memcheck:Leak
   fun:malloc
   fun:_Z7qMallocj
   fun:_ZN11QVectorData8allocateEii
   fun:_ZN7QVectorI13QLayoutStructEC1Ei
   fun:_ZNK14QToolBarLayout15updateGeomArrayEv
   fun:_ZN14QToolBarLayout13layoutActionsERK5QSize
   fun:_ZN14QToolBarLayout11setGeometryERK5QRect
   fun:_ZN14QLayoutPrivate8doResizeERK5QSize
   fun:_ZN7QLayout8activateEv
   fun:_ZN7QLayout11widgetEventEP6QEvent
   fun:_ZN19QApplicationPrivate13notify_helperEP7QObjectP6QEvent
   fun:_ZN12QApplication6notifyEP7QObjectP6QEvent
}
{
   <insert_a_suppression_name_here>
   Memcheck:Leak
   fun:_Znwj
   fun:_ZN10QBoxLayoutC2ENS_9DirectionEP7QWidget
   fun:_ZN11QVBoxLayoutC1Ev
   fun:_ZN10QStatusBar8reformatEv
   fun:_ZN10QStatusBar18setSizeGripEnabledEb
   fun:_ZN10QStatusBarC1EP7QWidget
   fun:_ZNK11QMainWindow9statusBarEv
   fun:_ZN3gui6window8house_qt14_update_statusEv
   fun:_ZN3gui6window8house_qtC1Ev
   fun:_ZN3gui12house_app_qt5startEv
   fun:_ZN17app_functionality8house_qt3runEv
   fun:_Z7do_mainRiPPc
}
{
   <insert_a_suppression_name_here>
   Memcheck:Leak
   fun:_Znwj
   fun:_ZN10QBoxLayoutC2ENS_9DirectionEP7QWidget
   fun:_ZN11QHBoxLayoutC1Ev
   fun:_ZN10QStatusBar8reformatEv
   fun:_ZN10QStatusBar18setSizeGripEnabledEb
   fun:_ZN10QStatusBarC1EP7QWidget
   fun:_ZNK11QMainWindow9statusBarEv
   fun:_ZN3gui6window8house_qt14_update_statusEv
   fun:_ZN3gui6window8house_qtC1Ev
   fun:_ZN3gui12house_app_qt5startEv
   fun:_ZN17app_functionality8house_qt3runEv
   fun:_Z7do_mainRiPPc
}
{
   <insert_a_suppression_name_here>
   Memcheck:Leak
   fun:_Znwj
   fun:_ZN11QCursorData10initializeEv
   fun:_ZN8QX11Data9xdndSetupEv
   fun:_Z7qt_initP19QApplicationPrivateiP9_XDisplaymm
   fun:_ZN19QApplicationPrivate9constructEP9_XDisplaymm
   fun:_ZN12QApplicationC2ERiPPci
   fun:_ZN3gui12house_app_qtC1ERiPPc
   fun:_ZN17app_functionality8house_qtC1ERiPPc
   fun:_Z8init_appRiPPc
   fun:_Z7do_mainRiPPc
   fun:main
}
{
   <insert_a_suppression_name_here>
   Memcheck:Leak
   fun:_Znwj
   fun:_ZN18QToolBarAreaLayout12restoreStateER11QDataStreamRK5QListIP8QToolBarEhbb
   fun:_ZN22QMainWindowLayoutState12restoreStateER11QDataStreamRKS_
   fun:_ZN17QMainWindowLayout12restoreStateER11QDataStream
   fun:_ZN11QMainWindow12restoreStateERK10QByteArrayi
   fun:_ZN3gui6window21size_restoring_windowI11QMainWindowE4showEv
   fun:_ZN3gui12house_app_qt5startEv
   fun:_ZN17app_functionality8house_qt3runEv
   fun:_Z7do_mainRiPPc
   fun:main
}
{
   <insert_a_suppression_name_here>
   Memcheck:Leak
   fun:_Znwj
   fun:_ZN6QBrush4initERK6QColorN2Qt10BrushStyleE
   fun:_ZN6QBrushC1ERK6QColorN2Qt10BrushStyleE
   fun:_ZN3gui4view12user_item_qt18resolve_user_stateEv
   fun:_ZN3gui4view8users_qt9_new_userERKN11chat_gaming4userEi
   fun:_ZN3gui4view8users_qt12_update_userERKN11chat_gaming4userEi
   fun:_ZN3gui4view8users_qt12_update_userERKN11chat_gaming8user_keyEi
   fun:_ZN3gui4view8users_qt14handle_messageEP7message
   fun:_ZN3gui6window8house_qt14handle_messageEP7message
   fun:_ZN3gui12house_app_qt17_handle_messengerEv
   fun:_ZN3gui12house_app_qt5eventEP6QEvent
   fun:_ZN19QApplicationPrivate13notify_helperEP7QObjectP6QEvent
}
{
   <insert_a_suppression_name_here>
   Memcheck:Leak
   fun:malloc
   fun:_XimOpenIM
   fun:_XimRegisterIMInstantiateCallback
   fun:XRegisterIMInstantiateCallback
   fun:_ZN16QXIMInputContextC1Ev
   fun:_ZN20QInputContextFactory6createERK7QStringP7QObject
   fun:_ZNK12QApplication12inputContextEv
   fun:_ZNK14QWidgetPrivate12inputContextEv
   fun:_ZN7QWidget12setAttributeEN2Qt15WidgetAttributeEb
   fun:_ZN9QTextEdit11setReadOnlyEb
   fun:_ZN3gui4view7chat_qtC1EP7QWidgetRKSs
   fun:_ZN3gui6window8house_qt15_create_widgetsEv
}
{
   <insert_a_suppression_name_here>
   Memcheck:Leak
   fun:malloc
   fun:_Z7qMallocj
   fun:_ZN11QVectorData8allocateEii
   fun:_ZN7QVectorIN14QObjectPrivate14ConnectionListEE7reallocEii
   fun:_ZN7QVectorIN14QObjectPrivate14ConnectionListEE6resizeEi
   fun:_ZN14QObjectPrivate13addConnectionEiPNS_10ConnectionE
   fun:_ZN18QMetaObjectPrivate7connectEPK7QObjectiS2_iiPi
   fun:_ZN7QObject7connectEPKS_PKcS1_S3_N2Qt14ConnectionTypeE
   fun:_ZN26QAbstractScrollAreaPrivate4initEv
   fun:_ZN19QAbstractScrollAreaC2ER26QAbstractScrollAreaPrivateP7QWidget
   fun:_ZN17QAbstractItemViewC2ER24QAbstractItemViewPrivateP7QWidget
   fun:_ZN9QTreeViewC2ER16QTreeViewPrivateP7QWidget
}
{
   <insert_a_suppression_name_here>
   Memcheck:Leak
   fun:malloc
   fun:_Z7qMallocj
   fun:_ZN11QVectorData8allocateEii
   fun:_ZN7QVectorIN14QObjectPrivate14ConnectionListEE7reallocEii
   fun:_ZN7QVectorIN14QObjectPrivate14ConnectionListEE6resizeEi
   fun:_ZN14QObjectPrivate13addConnectionEiPNS_10ConnectionE
   fun:_ZN18QMetaObjectPrivate7connectEPK7QObjectiS2_iiPi
   fun:_ZN7QObject7connectEPKS_PKcS1_S3_N2Qt14ConnectionTypeE
   fun:_ZN26QAbstractScrollAreaPrivate4initEv
   fun:_ZN19QAbstractScrollAreaC2ER26QAbstractScrollAreaPrivateP7QWidget
   fun:_ZN17QAbstractItemViewC2ER24QAbstractItemViewPrivateP7QWidget
   fun:_ZN9QTreeViewC2ER16QTreeViewPrivateP7QWidget
}
{
   <insert_a_suppression_name_here>
   Memcheck:Leak
   fun:malloc
   fun:_Z7qMallocj
   fun:_ZN11QVectorData8allocateEii
   fun:_ZN7QVectorIN14QObjectPrivate14ConnectionListEE7reallocEii
   fun:_ZN7QVectorIN14QObjectPrivate14ConnectionListEE6resizeEi
   fun:_ZN14QObjectPrivate13addConnectionEiPNS_10ConnectionE
   fun:_ZN18QMetaObjectPrivate7connectEPK7QObjectiS2_iiPi
   fun:_ZN7QObject7connectEPKS_PKcS1_S3_N2Qt14ConnectionTypeE
   fun:_ZN26QAbstractScrollAreaPrivate4initEv
   fun:_ZN19QAbstractScrollAreaC2ER26QAbstractScrollAreaPrivateP7QWidget
   fun:_ZN17QAbstractItemViewC2ER24QAbstractItemViewPrivateP7QWidget
   fun:_ZN11QHeaderViewC1EN2Qt11OrientationEP7QWidget
}
{
   <insert_a_suppression_name_here>
   Memcheck:Leak
   fun:_Znwj
   fun:_ZN15QGraphicsSystem23createDefaultPixmapDataEN11QPixmapData9PixelTypeE
   fun:_ZN7QPixmap9fromImageERK6QImage6QFlagsIN2Qt19ImageConversionFlagEE
   fun:_ZN7QPixmapC1EPKPKc
   fun:_ZNK12QCommonStyle14standardPixmapEN6QStyle14StandardPixmapEPK12QStyleOptionPK7QWidget
   fun:_ZNK13QWindowsStyle14standardPixmapEN6QStyle14StandardPixmapEPK12QStyleOptionPK7QWidget
   fun:_ZNK16QCleanlooksStyle14standardPixmapEN6QStyle14StandardPixmapEPK12QStyleOptionPK7QWidget
   fun:_ZNK12QCommonStyle26standardIconImplementationEN6QStyle14StandardPixmapEPK12QStyleOptionPK7QWidget
   fun:_ZNK13QWindowsStyle26standardIconImplementationEN6QStyle14StandardPixmapEPK12QStyleOptionPK7QWidget
   fun:_ZNK16QCleanlooksStyle26standardIconImplementationEN6QStyle14StandardPixmapEPK12QStyleOptionPK7QWidget
   fun:_ZN16QCleanlooksStyle11qt_metacallEN11QMetaObject4CallEiPPv
   fun:_ZN11QMetaObject8metacallEP7QObjectNS_4CallEiPPv
}
{
   <insert_a_suppression_name_here>
   Memcheck:Leak
   fun:realloc
   fun:_Z8qReallocPvj
   fun:_ZN9QListData7reallocEi
   fun:_ZN9QListData6appendEi
   fun:_ZN9QListData6appendEv
   fun:_ZN5QListIP7QObjectE6appendERKS1_
   fun:_ZN14QObjectPrivate16setParent_helperEP7QObject
   fun:_ZN14QWidgetPrivate13setParent_sysEP7QWidget6QFlagsIN2Qt10WindowTypeEE
   fun:_ZN7QWidget9setParentEPS_6QFlagsIN2Qt10WindowTypeEE
   fun:_ZN14QWidgetPrivate4initEP7QWidget6QFlagsIN2Qt10WindowTypeEE
   fun:_ZN7QWidgetC2ER14QWidgetPrivatePS_6QFlagsIN2Qt10WindowTypeEE
   fun:_ZN5QMenuC1ERK7QStringP7QWidget
}
{
   <insert_a_suppression_name_here>
   Memcheck:Leak
   fun:realloc
   fun:_Z8qReallocPvj
   fun:_ZN15QPolygonClipperI14qt_float_pointS0_fE11clipPolygonEPKS0_iPPS0_Pib
   fun:_ZN22QX11PaintEnginePrivate15clipPolygon_devERK9QPolygonFPS0_
   fun:_ZN15QX11PaintEngine11updateStateERK17QPaintEngineState
   fun:_ZN15QPainterPrivate15updateStateImplEP13QPainterState
   fun:_ZN15QPainterPrivate11updateStateEP13QPainterState
   fun:_ZN8QPainter13setClipRegionERK7QRegionN2Qt13ClipOperationE
   fun:_ZN8QMenuBar10paintEventEP11QPaintEvent
   fun:_ZN7QWidget5eventEP6QEvent
   fun:_ZN8QMenuBar5eventEP6QEvent
   fun:_ZN19QApplicationPrivate13notify_helperEP7QObjectP6QEvent
}
{
   <insert_a_suppression_name_here>
   Memcheck:Leak
   fun:malloc
   fun:_Z7qMallocj
   fun:_ZN11QVectorData8allocateEii
   fun:_ZN7QVectorI5QRectE7reallocEii
   fun:_ZN7QVectorI5QRectE13detach_helperEv
   fun:_ZN7QRegion9translateEii
   fun:_ZNK14QWidgetPrivate17getOpaqueChildrenEv
   fun:_ZNK14QWidgetPrivate22subtractOpaqueChildrenER7QRegionRK5QRect
   fun:_ZN14QWidgetPrivate10drawWidgetEP12QPaintDeviceRK7QRegionRK6QPointiP8QPainterP19QWidgetBackingStore
   fun:_ZN19QWidgetBackingStore4syncEv
   fun:_ZN14QWidgetPrivate16syncBackingStoreEv
   fun:_ZN7QWidget5eventEP6QEvent
}
{
   <insert_a_suppression_name_here>
   Memcheck:Leak
   fun:malloc
   fun:_Z7qMallocj
   fun:_ZN11QVectorData8allocateEii
   fun:_ZN7QVectorIN14QObjectPrivate14ConnectionListEE7reallocEii
   fun:_ZN7QVectorIN14QObjectPrivate14ConnectionListEE6resizeEi
   fun:_ZN14QObjectPrivate13addConnectionEiPNS_10ConnectionE
   fun:_ZN18QMetaObjectPrivate7connectEPK7QObjectiS2_iiPi
   fun:_ZN7QObject7connectEPKS_PKcS1_S3_N2Qt14ConnectionTypeE
   fun:_ZN14QToolBarLayoutC1EP7QWidget
   fun:_ZN15QToolBarPrivate4initEv
   fun:_ZN8QToolBarC1EP7QWidget
   fun:_ZN11QMainWindow10addToolBarERK7QString
}
{
   <insert_a_suppression_name_here>
   Memcheck:Leak
   fun:_Znwj
   fun:_ZN8QMapData10createDataEi
   fun:_ZN4QMapIN2Qt11GestureTypeE6QFlagsINS0_11GestureFlagEEE13detach_helperEv
   fun:_ZN15QGestureManager11filterEventEP7QWidgetP6QEvent
   fun:_ZN12QApplication6notifyEP7QObjectP6QEvent
   fun:_ZN16QCoreApplication14notifyInternalEP7QObjectP6QEvent
   fun:_ZN7QWidget9setParentEPS_6QFlagsIN2Qt10WindowTypeEE
   fun:_ZN14QWidgetPrivate4initEP7QWidget6QFlagsIN2Qt10WindowTypeEE
   fun:_ZN7QWidgetC1EPS_6QFlagsIN2Qt10WindowTypeEE
   fun:_ZN26QAbstractScrollAreaPrivate4initEv
   fun:_ZN19QAbstractScrollAreaC2ER26QAbstractScrollAreaPrivateP7QWidget
   fun:_ZN17QAbstractItemViewC2ER24QAbstractItemViewPrivateP7QWidget
}
{
   <insert_a_suppression_name_here>
   Memcheck:Leak
   fun:malloc
   fun:_Z7qMallocj
   fun:_ZN9QListData11detach_growEPii
   fun:_ZN5QListIP7QObjectE18detach_helper_growEii
   fun:_ZN5QListIP7QObjectE6appendERKS1_
   fun:_ZN14QObjectPrivate16setParent_helperEP7QObject
   fun:_ZN14QWidgetPrivate13setParent_sysEP7QWidget6QFlagsIN2Qt10WindowTypeEE
   fun:_ZN7QWidget9setParentEPS_6QFlagsIN2Qt10WindowTypeEE
   fun:_ZN14QWidgetPrivate4initEP7QWidget6QFlagsIN2Qt10WindowTypeEE
   fun:_ZN7QWidgetC2ER14QWidgetPrivatePS_6QFlagsIN2Qt10WindowTypeEE
   fun:_ZN15QAbstractSliderC2ER22QAbstractSliderPrivateP7QWidget
   fun:_ZN10QScrollBarC1EN2Qt11OrientationEP7QWidget
}
{
   <insert_a_suppression_name_here>
   Memcheck:Leak
   fun:_Znwj
   fun:_ZN14QObjectPrivate13addConnectionEiPNS_10ConnectionE
   fun:_ZN18QMetaObjectPrivate7connectEPK7QObjectiS2_iiPi
   fun:_ZN7QObject7connectEPKS_PKcS1_S3_N2Qt14ConnectionTypeE
   fun:_ZN5QMenu11actionEventEP12QActionEvent
   fun:_ZN7QWidget5eventEP6QEvent
   fun:_ZN5QMenu5eventEP6QEvent
   fun:_ZN19QApplicationPrivate13notify_helperEP7QObjectP6QEvent
   fun:_ZN12QApplication6notifyEP7QObjectP6QEvent
   fun:_ZN16QCoreApplication14notifyInternalEP7QObjectP6QEvent
   fun:_ZN7QWidget12insertActionEP7QActionS1_
   fun:_ZN7QWidget9addActionEP7QAction
}
{
   <insert_a_suppression_name_here>
   Memcheck:Leak
   fun:_Znwj
   fun:_ZN15QSplitterHandleC1EN2Qt11OrientationEP9QSplitter
   fun:_ZN9QSplitter12createHandleEv
   fun:_ZN16QSplitterPrivate12insertWidgetEiP7QWidget
   fun:_ZN16QSplitterPrivate19insertWidget_helperEiP7QWidgetb
   fun:_ZN9QSplitter12insertWidgetEiP7QWidget
   fun:_ZN9QSplitter9addWidgetEP7QWidget
   fun:_ZN3gui6window8house_qt14_create_layoutEv
   fun:_ZN3gui6window8house_qtC1Ev
   fun:_ZN3gui12house_app_qt5startEv
   fun:_ZN17app_functionality8house_qt3runEv
   fun:_Z7do_mainRiPPc
}
{
   <insert_a_suppression_name_here>
   Memcheck:Leak
   fun:_Znwj
   fun:_ZN15QSplitterHandleC1EN2Qt11OrientationEP9QSplitter
   fun:_ZN9QSplitter12createHandleEv
   fun:_ZN16QSplitterPrivate12insertWidgetEiP7QWidget
   fun:_ZN16QSplitterPrivate19insertWidget_helperEiP7QWidgetb
   fun:_ZN9QSplitter12insertWidgetEiP7QWidget
   fun:_ZN9QSplitter9addWidgetEP7QWidget
   fun:_ZN3gui6window8house_qt14_create_layoutEv
   fun:_ZN3gui6window8house_qtC1Ev
   fun:_ZN3gui12house_app_qt5startEv
   fun:_ZN17app_functionality8house_qt3runEv
   fun:_Z7do_mainRiPPc
}
{
   <insert_a_suppression_name_here>
   Memcheck:Leak
   fun:_Znwj
   fun:_ZN15QSplitterHandleC1EN2Qt11OrientationEP9QSplitter
   fun:_ZN9QSplitter12createHandleEv
   fun:_ZN16QSplitterPrivate12insertWidgetEiP7QWidget
   fun:_ZN16QSplitterPrivate19insertWidget_helperEiP7QWidgetb
   fun:_ZN9QSplitter12insertWidgetEiP7QWidget
   fun:_ZN9QSplitter9addWidgetEP7QWidget
   fun:_ZN3gui6window8house_qt14_create_layoutEv
   fun:_ZN3gui6window8house_qtC1Ev
   fun:_ZN3gui12house_app_qt5startEv
   fun:_ZN17app_functionality8house_qt3runEv
   fun:_Z7do_mainRiPPc
}
{
   <insert_a_suppression_name_here>
   Memcheck:Leak
   fun:_Znwj
   fun:_ZN15QGraphicsSystem23createDefaultPixmapDataEN11QPixmapData9PixelTypeE
   fun:_ZN11QPixmapData6createEiiNS_9PixelTypeE
   fun:_ZN7QPixmap4loadERK7QStringPKc6QFlagsIN2Qt19ImageConversionFlagEE
   fun:_ZN7QPixmapC1ERK7QStringPKc6QFlagsIN2Qt19ImageConversionFlagEE
   fun:_ZN17QPixmapIconEngine9bestMatchERK5QSizeN5QIcon4ModeENS3_5StateEb
   fun:_ZN17QPixmapIconEngine6pixmapERK5QSizeN5QIcon4ModeENS3_5StateE
   fun:_ZNK5QIcon6pixmapERK5QSizeNS_4ModeENS_5StateE
   fun:_ZNK12QCommonStyle11drawControlEN6QStyle14ControlElementEPK12QStyleOptionP8QPainterPK7QWidget
   fun:_ZNK13QWindowsStyle11drawControlEN6QStyle14ControlElementEPK12QStyleOptionP8QPainterPK7QWidget
   fun:_ZNK16QCleanlooksStyle11drawControlEN6QStyle14ControlElementEPK12QStyleOptionP8QPainterPK7QWidget
   fun:_ZNK12QCommonStyle18drawComplexControlEN6QStyle14ComplexControlEPK19QStyleOptionComplexP8QPainterPK7QWidget
}
{
   <insert_a_suppression_name_here>
   Memcheck:Leak
   fun:_Znwj
   fun:_ZN9QSizeGripC1EP7QWidget
   fun:_ZN10QStatusBar18setSizeGripEnabledEb
   fun:_ZN10QStatusBarC1EP7QWidget
   fun:_ZNK11QMainWindow9statusBarEv
   fun:_ZN3gui6window8house_qt14_update_statusEv
   fun:_ZN3gui6window8house_qtC1Ev
   fun:_ZN3gui12house_app_qt5startEv
   fun:_ZN17app_functionality8house_qt3runEv
   fun:_Z7do_mainRiPPc
   fun:main
}
{
   <insert_a_suppression_name_here>
   Memcheck:Leak
   fun:_Znwj
   fun:_ZN9QSplitterC1EN2Qt11OrientationEP7QWidget
   fun:_ZN3gui6window8house_qt14_create_layoutEv
   fun:_ZN3gui6window8house_qtC1Ev
   fun:_ZN3gui12house_app_qt5startEv
   fun:_ZN17app_functionality8house_qt3runEv
   fun:_Z7do_mainRiPPc
   fun:main
}
{
   <insert_a_suppression_name_here>
   Memcheck:Leak
   fun:_Znwj
   fun:_ZN15QX11PaintEngineC1Ev
   fun:_ZNK14QX11PixmapData11paintEngineEv
   fun:_ZNK7QPixmap11paintEngineEv
   fun:_ZN14QWidgetPrivate10drawWidgetEP12QPaintDeviceRK7QRegionRK6QPointiP8QPainterP19QWidgetBackingStore
   fun:_ZN19QWidgetBackingStore4syncEv
   fun:_ZN19QWidgetBackingStore4syncEP7QWidgetRK7QRegion
   fun:_ZN14QWidgetPrivate16syncBackingStoreERK7QRegion
   fun:_ZN9QETWidget19translatePaintEventEPK7_XEvent
   fun:_ZN12QApplication15x11ProcessEventEP7_XEvent
   fun:_ZN19QEventDispatcherX1113processEventsE6QFlagsIN10QEventLoop17ProcessEventsFlagEE
   fun:_ZN10QEventLoop13processEventsE6QFlagsINS_17ProcessEventsFlagEE
}
{
   <insert_a_suppression_name_here>
   Memcheck:Leak
   fun:_Znwj
   fun:_ZN11QToolButtonC2EP7QWidget
   fun:_ZN17QToolBarExtensionC1EP7QWidget
   fun:_ZN14QToolBarLayoutC1EP7QWidget
   fun:_ZN15QToolBarPrivate4initEv
   fun:_ZN8QToolBarC1EP7QWidget
   fun:_ZN11QMainWindow10addToolBarERK7QString
   fun:_ZN3gui6window8house_qt16_create_toolbarsEv
   fun:_ZN3gui6window8house_qtC1Ev
   fun:_ZN3gui12house_app_qt5startEv
   fun:_ZN17app_functionality8house_qt3runEv
   fun:_Z7do_mainRiPPc
}
{
   <insert_a_suppression_name_here>
   Memcheck:Leak
   fun:_Znwj
   fun:_ZN5QMenuC1ERK7QStringP7QWidget
   fun:_ZN3gui6window8house_qt13_create_menusEv
   fun:_ZN3gui6window8house_qtC1Ev
   fun:_ZN3gui12house_app_qt5startEv
   fun:_ZN17app_functionality8house_qt3runEv
   fun:_Z7do_mainRiPPc
   fun:main
}
{
   <insert_a_suppression_name_here>
   Memcheck:Leak
   fun:_Znwj
   fun:_ZN5QMenuC1ERK7QStringP7QWidget
   fun:_ZN3gui6window8house_qt13_create_menusEv
   fun:_ZN3gui6window8house_qtC1Ev
   fun:_ZN3gui12house_app_qt5startEv
   fun:_ZN17app_functionality8house_qt3runEv
   fun:_Z7do_mainRiPPc
   fun:main
}
{
   <insert_a_suppression_name_here>
   Memcheck:Leak
   fun:_Znwj
   fun:_ZN5QMenuC1ERK7QStringP7QWidget
   fun:_ZN3gui6window8house_qt13_create_menusEv
   fun:_ZN3gui6window8house_qtC1Ev
   fun:_ZN3gui12house_app_qt5startEv
   fun:_ZN17app_functionality8house_qt3runEv
   fun:_Z7do_mainRiPPc
   fun:main
}
{
   <insert_a_suppression_name_here>
   Memcheck:Leak
   fun:_Znwj
   fun:_ZN5QMenuC1EP7QWidget
   fun:_ZN3gui4view8users_qt20_create_context_menuEv
   fun:_ZN3gui4view8users_qtC1EP7QWidgetRKSs
   fun:_ZN3gui6window8house_qt15_create_widgetsEv
   fun:_ZN3gui6window8house_qtC1Ev
   fun:_ZN3gui12house_app_qt5startEv
   fun:_ZN17app_functionality8house_qt3runEv
   fun:_Z7do_mainRiPPc
   fun:main
}
{
   <insert_a_suppression_name_here>
   Memcheck:Leak
   fun:_Znwj
   fun:_ZN5QMenuC1ERK7QStringP7QWidget
   fun:_ZN3gui4view8users_qt20_create_context_menuEv
   fun:_ZN3gui4view8users_qtC1EP7QWidgetRKSs
   fun:_ZN3gui6window8house_qt15_create_widgetsEv
   fun:_ZN3gui6window8house_qtC1Ev
   fun:_ZN3gui12house_app_qt5startEv
   fun:_ZN17app_functionality8house_qt3runEv
   fun:_Z7do_mainRiPPc
   fun:main
}
{
   <insert_a_suppression_name_here>
   Memcheck:Leak
   fun:malloc
   fun:_Z7qMallocj
   fun:_ZN11QVectorData8allocateEii
   fun:_ZN7QVectorIN14QObjectPrivate14ConnectionListEE7reallocEii
   fun:_ZN7QVectorIN14QObjectPrivate14ConnectionListEE6resizeEi
   fun:_ZN14QObjectPrivate13addConnectionEiPNS_10ConnectionE
   fun:_ZN18QMetaObjectPrivate7connectEPK7QObjectiS2_iiPi
   fun:_ZN7QObject7connectEPKS_PKcS1_S3_N2Qt14ConnectionTypeE
   fun:_ZN14QToolBarLayout10createItemEP7QAction
   fun:_ZN14QToolBarLayout12insertActionEiP7QAction
   fun:_ZN8QToolBar11actionEventEP12QActionEvent
   fun:_ZN7QWidget5eventEP6QEvent
}
{
   <insert_a_suppression_name_here>
   Memcheck:Leak
   fun:_Znwj
   fun:_ZN8QMapData10createDataEi
   fun:_ZN4QMapIN2Qt11GestureTypeE6QFlagsINS0_11GestureFlagEEE13detach_helperEv
   fun:_ZN15QGestureManager11filterEventEP7QWidgetP6QEvent
   fun:_ZN12QApplication6notifyEP7QObjectP6QEvent
   fun:_ZN16QCoreApplication14notifyInternalEP7QObjectP6QEvent
   fun:_ZN7QWidget9setParentEPS_6QFlagsIN2Qt10WindowTypeEE
   fun:_ZN14QWidgetPrivate4initEP7QWidget6QFlagsIN2Qt10WindowTypeEE
   fun:_ZN7QWidgetC2ER14QWidgetPrivatePS_6QFlagsIN2Qt10WindowTypeEE
   fun:_ZN15QAbstractSliderC2ER22QAbstractSliderPrivateP7QWidget
   fun:_ZN10QScrollBarC1EN2Qt11OrientationEP7QWidget
   fun:_ZN37QAbstractScrollAreaScrollBarContainerC1EN2Qt11OrientationEP7QWidget
}
{
   <insert_a_suppression_name_here>
   Memcheck:Leak
   fun:malloc
   fun:realloc
   fun:_ZN19QTessellatorPrivate8Vertices4initEi
   fun:_ZN12QTessellator10tessellateEPK7QPointFi
   fun:_ZN22QX11PaintEnginePrivate15fillPolygon_devEPK7QPointFiNS_6GCModeEN12QPaintEngine15PolygonDrawModeE
   fun:_ZN22QX11PaintEnginePrivate8fillPathERK12QPainterPathNS_6GCModeEb
   fun:_ZN15QX11PaintEngine8drawPathERK12QPainterPath
   fun:_ZN15QX11PaintEngine9drawLinesEPK5QLinei
   fun:_ZN8QPainter9drawLinesEPK5QLinei
   fun:_ZNK16QCleanlooksStyle13drawPrimitiveEN6QStyle16PrimitiveElementEPK12QStyleOptionP8QPainterPK7QWidget
   fun:_ZNK12QCommonStyle13drawPrimitiveEN6QStyle16PrimitiveElementEPK12QStyleOptionP8QPainterPK7QWidget
   fun:_ZNK13QWindowsStyle13drawPrimitiveEN6QStyle16PrimitiveElementEPK12QStyleOptionP8QPainterPK7QWidget
}
{
   <insert_a_suppression_name_here>
   Memcheck:Leak
   fun:malloc
   fun:_Z7qMallocj
   fun:_ZN7QString17fromLatin1_helperEPKci
   fun:_ZN7QString16fromAscii_helperEPKci
   fun:_ZN7QStringC1EPKc
   fun:_ZN13icon_store_qt13_icon_factoryERKSs
   fun:_ZN13icon_store_qt4loadEPKcRKSs
   fun:_ZN13icon_store_qt13scan_from_dirESsPKcz
   fun:_ZN3gui12house_app_qtC1ERiPPc
   fun:_ZN17app_functionality8house_qtC1ERiPPc
   fun:_Z8init_appRiPPc
   fun:_Z7do_mainRiPPc
}
{
   <insert_a_suppression_name_here>
   Memcheck:Leak
   fun:malloc
   fun:realloc
   fun:_ZN19QTessellatorPrivate8Scanline4initEi
   fun:_ZN12QTessellator10tessellateEPK7QPointFi
   fun:_ZN22QX11PaintEnginePrivate15fillPolygon_devEPK7QPointFiNS_6GCModeEN12QPaintEngine15PolygonDrawModeE
   fun:_ZN22QX11PaintEnginePrivate8fillPathERK12QPainterPathNS_6GCModeEb
   fun:_ZN15QX11PaintEngine8drawPathERK12QPainterPath
   fun:_ZN15QX11PaintEngine9drawLinesEPK5QLinei
   fun:_ZN8QPainter9drawLinesEPK5QLinei
   fun:_ZNK16QCleanlooksStyle13drawPrimitiveEN6QStyle16PrimitiveElementEPK12QStyleOptionP8QPainterPK7QWidget
   fun:_ZNK12QCommonStyle13drawPrimitiveEN6QStyle16PrimitiveElementEPK12QStyleOptionP8QPainterPK7QWidget
   fun:_ZNK13QWindowsStyle13drawPrimitiveEN6QStyle16PrimitiveElementEPK12QStyleOptionP8QPainterPK7QWidget
}
{
   <insert_a_suppression_name_here>
   Memcheck:Leak
   fun:malloc
   fun:_Z7qMallocj
   fun:_ZN11QVectorData8allocateEii
   fun:_ZN7QVectorIN14QObjectPrivate14ConnectionListEE7reallocEii
   fun:_ZN7QVectorIN14QObjectPrivate14ConnectionListEE6resizeEi
   fun:_ZN14QObjectPrivate13addConnectionEiPNS_10ConnectionE
   fun:_ZN18QMetaObjectPrivate7connectEPK7QObjectiS2_iiPi
   fun:_ZN7QObject7connectEPKS_PKcS1_S3_N2Qt14ConnectionTypeE
   fun:_ZN5QMenu11actionEventEP12QActionEvent
   fun:_ZN7QWidget5eventEP6QEvent
   fun:_ZN5QMenu5eventEP6QEvent
   fun:_ZN19QApplicationPrivate13notify_helperEP7QObjectP6QEvent
}
{
   <insert_a_suppression_name_here>
   Memcheck:Leak
   fun:_Znwj
   fun:_ZN18QMainWindowPrivate4initEv
   fun:_ZN11QMainWindowC2EP7QWidget6QFlagsIN2Qt10WindowTypeEE
   fun:_ZN3gui6window21size_restoring_windowI11QMainWindowEC2ERKSsP7QWidget
   fun:_ZN3gui6window8house_qtC1Ev
   fun:_ZN3gui12house_app_qt5startEv
   fun:_ZN17app_functionality8house_qt3runEv
   fun:_Z7do_mainRiPPc
   fun:main
}
{
   <insert_a_suppression_name_here>
   Memcheck:Leak
   fun:malloc
   fun:realloc
   fun:_ZN19QTessellatorPrivate8Vertices4initEi
   fun:_ZN12QTessellator10tessellateEPK7QPointFi
   fun:_ZN22QX11PaintEnginePrivate15fillPolygon_devEPK7QPointFiNS_6GCModeEN12QPaintEngine15PolygonDrawModeE
   fun:_ZN22QX11PaintEnginePrivate8fillPathERK12QPainterPathNS_6GCModeEb
   fun:_ZN15QX11PaintEngine8drawPathERK12QPainterPath
   fun:_ZN15QX11PaintEngine9drawLinesEPK5QLinei
   fun:_ZN8QPainter9drawLinesEPK5QLinei
   fun:_ZNK16QCleanlooksStyle13drawPrimitiveEN6QStyle16PrimitiveElementEPK12QStyleOptionP8QPainterPK7QWidget
   fun:_ZNK12QCommonStyle13drawPrimitiveEN6QStyle16PrimitiveElementEPK12QStyleOptionP8QPainterPK7QWidget
   fun:_ZNK13QWindowsStyle13drawPrimitiveEN6QStyle16PrimitiveElementEPK12QStyleOptionP8QPainterPK7QWidget
}
{
   <insert_a_suppression_name_here>
   Memcheck:Leak
   fun:_Znwj
   fun:_ZN11QToolButtonC1EP7QWidget
   fun:_ZN14QToolBarLayout10createItemEP7QAction
   fun:_ZN14QToolBarLayout12insertActionEiP7QAction
   fun:_ZN8QToolBar11actionEventEP12QActionEvent
   fun:_ZN7QWidget5eventEP6QEvent
   fun:_ZN8QToolBar5eventEP6QEvent
   fun:_ZN19QApplicationPrivate13notify_helperEP7QObjectP6QEvent
   fun:_ZN12QApplication6notifyEP7QObjectP6QEvent
   fun:_ZN16QCoreApplication14notifyInternalEP7QObjectP6QEvent
   fun:_ZN7QWidget12insertActionEP7QActionS1_
   fun:_ZN7QWidget9addActionEP7QAction
}
{
   <insert_a_suppression_name_here>
   Memcheck:Leak
   fun:malloc
   fun:realloc
   fun:_ZN19QXRenderTessellator7addTrapERKN12QTessellator9TrapezoidE
   fun:_ZN19QTessellatorPrivate9emitEdgesEP12QTessellator
   fun:_ZN12QTessellator10tessellateEPK7QPointFi
   fun:_ZN22QX11PaintEnginePrivate15fillPolygon_devEPK7QPointFiNS_6GCModeEN12QPaintEngine15PolygonDrawModeE
   fun:_ZN22QX11PaintEnginePrivate8fillPathERK12QPainterPathNS_6GCModeEb
   fun:_ZN15QX11PaintEngine8drawPathERK12QPainterPath
   fun:_ZN15QX11PaintEngine9drawLinesEPK5QLinei
   fun:_ZN8QPainter9drawLinesEPK5QLinei
   fun:_ZNK16QCleanlooksStyle13drawPrimitiveEN6QStyle16PrimitiveElementEPK12QStyleOptionP8QPainterPK7QWidget
   fun:_ZNK12QCommonStyle13drawPrimitiveEN6QStyle16PrimitiveElementEPK12QStyleOptionP8QPainterPK7QWidget
}
{
   <insert_a_suppression_name_here>
   Memcheck:Leak
   fun:_Znwj
   fun:_ZN7QRegionC1ERK5QRectNS_10RegionTypeE
   fun:_ZNK14QWidgetPrivate17getOpaqueChildrenEv
   fun:_ZNK14QWidgetPrivate17getOpaqueChildrenEv
   fun:_ZNK14QWidgetPrivate17getOpaqueChildrenEv
   fun:_ZNK14QWidgetPrivate17getOpaqueChildrenEv
   fun:_ZNK14QWidgetPrivate22subtractOpaqueChildrenER7QRegionRK5QRect
   fun:_ZN19QWidgetBackingStore4syncEv
   fun:_ZN14QWidgetPrivate16syncBackingStoreEv
   fun:_ZN7QWidget5eventEP6QEvent
   fun:_ZN11QMainWindow5eventEP6QEvent
   fun:_ZN19QApplicationPrivate13notify_helperEP7QObjectP6QEvent
}
{
   <insert_a_suppression_name_here>
   Memcheck:Leak
   fun:_Znwj
   fun:_ZNK7QRegion4copyEv
   fun:_ZN7QRegion6detachEv
   fun:_ZN7QRegion9translateEii
   fun:_ZNK14QWidgetPrivate17getOpaqueChildrenEv
   fun:_ZNK14QWidgetPrivate22subtractOpaqueChildrenER7QRegionRK5QRect
   fun:_ZN19QWidgetBackingStore4syncEv
   fun:_ZN14QWidgetPrivate16syncBackingStoreEv
   fun:_ZN7QWidget5eventEP6QEvent
   fun:_ZN11QMainWindow5eventEP6QEvent
   fun:_ZN19QApplicationPrivate13notify_helperEP7QObjectP6QEvent
   fun:_ZN12QApplication6notifyEP7QObjectP6QEvent
}
{
   <insert_a_suppression_name_here>
   Memcheck:Leak
   fun:_Znwj
   fun:_ZNK8QX11Info10getX11DataEb
   fun:_ZN14QX11PixmapData9fromImageERK6QImage6QFlagsIN2Qt19ImageConversionFlagEE
   fun:_ZN7QPixmap9fromImageERK6QImage6QFlagsIN2Qt19ImageConversionFlagEE
   fun:_ZNK6QBrush7textureEv
   fun:_ZN15QX11PaintEngine11updateBrushERK6QBrushRK7QPointF
   fun:_ZN15QX11PaintEngine11updateStateERK17QPaintEngineState
   fun:_ZN15QPainterPrivate15updateStateImplEP13QPainterState
   fun:_ZN15QPainterPrivate11updateStateEP13QPainterState
   fun:_ZN8QPainter9drawRectsEPK6QRectFi
   fun:_ZN8QPainter9drawImageERK6QRectFRK6QImageS2_6QFlagsIN2Qt19ImageConversionFlagEE
   fun:_ZNK16QCleanlooksStyle18drawComplexControlEN6QStyle14ComplexControlEPK19QStyleOptionComplexP8QPainterPK7QWidget
}
{
   <insert_a_suppression_name_here>
   Memcheck:Leak
   fun:_Znwj
   fun:_ZN7QRegionC1ERK5QRectNS_10RegionTypeE
   fun:_ZNK14QWidgetPrivate17getOpaqueChildrenEv
   fun:_ZNK14QWidgetPrivate17getOpaqueChildrenEv
   fun:_ZNK14QWidgetPrivate17getOpaqueChildrenEv
   fun:_ZNK14QWidgetPrivate17getOpaqueChildrenEv
   fun:_ZNK14QWidgetPrivate22subtractOpaqueChildrenER7QRegionRK5QRect
   fun:_ZN19QWidgetBackingStore4syncEv
   fun:_ZN14QWidgetPrivate16syncBackingStoreEv
   fun:_ZN7QWidget5eventEP6QEvent
   fun:_ZN11QMainWindow5eventEP6QEvent
   fun:_ZN19QApplicationPrivate13notify_helperEP7QObjectP6QEvent
}
{
   <insert_a_suppression_name_here>
   Memcheck:Leak
   fun:_Znwj
   fun:_ZNK7QRegion4copyEv
   fun:_ZN7QRegion6detachEv
   fun:_ZN7QRegion9translateEii
   fun:_ZNK14QWidgetPrivate17getOpaqueChildrenEv
   fun:_ZNK14QWidgetPrivate22subtractOpaqueChildrenER7QRegionRK5QRect
   fun:_ZN19QWidgetBackingStore4syncEv
   fun:_ZN14QWidgetPrivate16syncBackingStoreEv
   fun:_ZN7QWidget5eventEP6QEvent
   fun:_ZN11QMainWindow5eventEP6QEvent
   fun:_ZN19QApplicationPrivate13notify_helperEP7QObjectP6QEvent
   fun:_ZN12QApplication6notifyEP7QObjectP6QEvent
}
{
   <insert_a_suppression_name_here>
   Memcheck:Leak
   fun:_Znwj
   fun:_ZN15QGraphicsSystem23createDefaultPixmapDataEN11QPixmapData9PixelTypeE
   fun:_ZN7QPixmap9fromImageERK6QImage6QFlagsIN2Qt19ImageConversionFlagEE
   fun:_ZNK6QBrush7textureEv
   fun:_ZN15QX11PaintEngine11updateBrushERK6QBrushRK7QPointF
   fun:_ZN15QX11PaintEngine11updateStateERK17QPaintEngineState
   fun:_ZN15QPainterPrivate15updateStateImplEP13QPainterState
   fun:_ZN15QPainterPrivate11updateStateEP13QPainterState
   fun:_ZN8QPainter9drawRectsEPK6QRectFi
   fun:_ZN8QPainter9drawImageERK6QRectFRK6QImageS2_6QFlagsIN2Qt19ImageConversionFlagEE
   fun:_ZNK16QCleanlooksStyle18drawComplexControlEN6QStyle14ComplexControlEPK19QStyleOptionComplexP8QPainterPK7QWidget
   fun:_ZN10QScrollBar10paintEventEP11QPaintEvent
}
{
   <insert_a_suppression_name_here>
   Memcheck:Leak
   fun:realloc
   fun:_Z8qReallocPvj
   fun:_ZN11QVectorData10reallocateEPS_iii
   fun:_ZN7QVectorI13QTreeViewItemE7reallocEii
   fun:_ZN7QVectorI13QTreeViewItemE6resizeEi
   fun:_ZN16QTreeViewPrivate6layoutEibb
   fun:_ZN16QTreeViewPrivate6layoutEibb
   fun:_ZN9QTreeView13doItemsLayoutEv
   fun:_ZNK9QTreeView14verticalOffsetEv
   fun:_ZNK24QAbstractItemViewPrivate14contentsOffsetEv
   fun:_ZNK14QWidgetPrivate15paintBackgroundEP8QPainterRK7QRegioni
   fun:_ZN14QWidgetPrivate10drawWidgetEP12QPaintDeviceRK7QRegionRK6QPointiP8QPainterP19QWidgetBackingStore
}
{
   <insert_a_suppression_name_here>
   Memcheck:Leak
   fun:malloc
   fun:_Z7qMallocj
   fun:_ZN11QVectorData8allocateEii
   fun:_ZN7QVectorI5QRectE7reallocEii
   fun:_ZN7QVectorI5QRectE13detach_helperEv
   fun:_ZN7QRegion9translateEii
   fun:_ZNK14QWidgetPrivate17getOpaqueChildrenEv
   fun:_ZNK14QWidgetPrivate22subtractOpaqueChildrenER7QRegionRK5QRect
   fun:_ZN19QWidgetBackingStore4syncEv
   fun:_ZN14QWidgetPrivate16syncBackingStoreEv
   fun:_ZN7QWidget5eventEP6QEvent
   fun:_ZN11QMainWindow5eventEP6QEvent
}
